
WDR_Atmega16a.elf:     file format elf32-avr

Sections:
Idx Name          Size      VMA       LMA       File off  Algn
  0 .text         000033f0  00000000  00000000  00000094  2**1
                  CONTENTS, ALLOC, LOAD, READONLY, CODE
  1 .data         0000029e  00800060  000033f0  00003484  2**0
                  CONTENTS, ALLOC, LOAD, DATA
  2 .bss          000000d1  008002fe  008002fe  00003722  2**0
                  ALLOC
  3 .comment      00000030  00000000  00000000  00003722  2**0
                  CONTENTS, READONLY
  4 .note.gnu.avr.deviceinfo 0000003c  00000000  00000000  00003754  2**2
                  CONTENTS, READONLY
  5 .debug_aranges 000003b0  00000000  00000000  00003790  2**0
                  CONTENTS, READONLY, DEBUGGING
  6 .debug_info   0000470a  00000000  00000000  00003b40  2**0
                  CONTENTS, READONLY, DEBUGGING
  7 .debug_abbrev 00001726  00000000  00000000  0000824a  2**0
                  CONTENTS, READONLY, DEBUGGING
  8 .debug_line   00001340  00000000  00000000  00009970  2**0
                  CONTENTS, READONLY, DEBUGGING
  9 .debug_frame  00000ba4  00000000  00000000  0000acb0  2**2
                  CONTENTS, READONLY, DEBUGGING
 10 .debug_str    0000150c  00000000  00000000  0000b854  2**0
                  CONTENTS, READONLY, DEBUGGING
 11 .debug_loc    00003022  00000000  00000000  0000cd60  2**0
                  CONTENTS, READONLY, DEBUGGING
 12 .debug_ranges 00000358  00000000  00000000  0000fd82  2**0
                  CONTENTS, READONLY, DEBUGGING

Disassembly of section .text:

00000000 <__vectors>:
       0:	0c 94 38 01 	jmp	0x270	; 0x270 <__dtors_end>
       4:	0c 94 60 01 	jmp	0x2c0	; 0x2c0 <__bad_interrupt>
       8:	0c 94 6b 0c 	jmp	0x18d6	; 0x18d6 <__vector_2>
       c:	0c 94 60 01 	jmp	0x2c0	; 0x2c0 <__bad_interrupt>
      10:	0c 94 75 0c 	jmp	0x18ea	; 0x18ea <__vector_4>
      14:	0c 94 60 01 	jmp	0x2c0	; 0x2c0 <__bad_interrupt>
      18:	0c 94 fa 0b 	jmp	0x17f4	; 0x17f4 <__vector_6>
      1c:	0c 94 60 01 	jmp	0x2c0	; 0x2c0 <__bad_interrupt>
      20:	0c 94 60 01 	jmp	0x2c0	; 0x2c0 <__bad_interrupt>
      24:	0c 94 60 01 	jmp	0x2c0	; 0x2c0 <__bad_interrupt>
      28:	0c 94 60 01 	jmp	0x2c0	; 0x2c0 <__bad_interrupt>
      2c:	0c 94 60 01 	jmp	0x2c0	; 0x2c0 <__bad_interrupt>
      30:	0c 94 60 01 	jmp	0x2c0	; 0x2c0 <__bad_interrupt>
      34:	0c 94 60 01 	jmp	0x2c0	; 0x2c0 <__bad_interrupt>
      38:	0c 94 60 01 	jmp	0x2c0	; 0x2c0 <__bad_interrupt>
      3c:	0c 94 60 01 	jmp	0x2c0	; 0x2c0 <__bad_interrupt>
      40:	0c 94 60 01 	jmp	0x2c0	; 0x2c0 <__bad_interrupt>
      44:	0c 94 60 01 	jmp	0x2c0	; 0x2c0 <__bad_interrupt>
      48:	0c 94 60 01 	jmp	0x2c0	; 0x2c0 <__bad_interrupt>
      4c:	0c 94 60 01 	jmp	0x2c0	; 0x2c0 <__bad_interrupt>
      50:	0c 94 60 01 	jmp	0x2c0	; 0x2c0 <__bad_interrupt>
      54:	7e 01       	movw	r14, r28
      56:	81 01       	movw	r16, r2
      58:	84 01       	movw	r16, r8
      5a:	87 01       	movw	r16, r14
      5c:	8a 01       	movw	r16, r20
      5e:	8d 01       	movw	r16, r26
      60:	90 01       	movw	r18, r0
      62:	93 01       	movw	r18, r6
      64:	b9 01       	movw	r22, r18
      66:	c0 01       	movw	r24, r0
      68:	c7 01       	movw	r24, r14
      6a:	ce 01       	movw	r24, r28
      6c:	d5 01       	movw	r26, r10
      6e:	dc 01       	movw	r26, r24
      70:	e3 01       	movw	r28, r6
      72:	ea 01       	movw	r28, r20
      74:	f1 01       	movw	r30, r2
      76:	6b 06       	cpc	r6, r27
      78:	c3 06       	cpc	r12, r19
      7a:	c3 06       	cpc	r12, r19
      7c:	63 06       	cpc	r6, r19
      7e:	c3 06       	cpc	r12, r19
      80:	c3 06       	cpc	r12, r19
      82:	73 06       	cpc	r7, r19
      84:	7b 06       	cpc	r7, r27
      86:	83 06       	cpc	r8, r19
      88:	8b 06       	cpc	r8, r27
      8a:	93 06       	cpc	r9, r19
      8c:	9b 06       	cpc	r9, r27
      8e:	a3 06       	cpc	r10, r19
      90:	ab 06       	cpc	r10, r27
      92:	b3 06       	cpc	r11, r19
      94:	bb 06       	cpc	r11, r27
      96:	c3 06       	cpc	r12, r19
      98:	c3 06       	cpc	r12, r19
      9a:	c3 06       	cpc	r12, r19
      9c:	c3 06       	cpc	r12, r19
      9e:	c3 06       	cpc	r12, r19
      a0:	c3 06       	cpc	r12, r19
      a2:	c3 06       	cpc	r12, r19
      a4:	c3 06       	cpc	r12, r19
      a6:	c3 06       	cpc	r12, r19
      a8:	c3 06       	cpc	r12, r19
      aa:	c3 06       	cpc	r12, r19
      ac:	c3 06       	cpc	r12, r19
      ae:	c3 06       	cpc	r12, r19
      b0:	c3 06       	cpc	r12, r19
      b2:	c3 06       	cpc	r12, r19
      b4:	c3 06       	cpc	r12, r19
      b6:	c3 06       	cpc	r12, r19
      b8:	c3 06       	cpc	r12, r19
      ba:	c3 06       	cpc	r12, r19
      bc:	c3 06       	cpc	r12, r19
      be:	c3 06       	cpc	r12, r19
      c0:	c3 06       	cpc	r12, r19
      c2:	c3 06       	cpc	r12, r19
      c4:	c3 06       	cpc	r12, r19
      c6:	c3 06       	cpc	r12, r19
      c8:	c3 06       	cpc	r12, r19
      ca:	c3 06       	cpc	r12, r19
      cc:	c3 06       	cpc	r12, r19
      ce:	c3 06       	cpc	r12, r19
      d0:	c3 06       	cpc	r12, r19
      d2:	c3 06       	cpc	r12, r19
      d4:	c3 06       	cpc	r12, r19
      d6:	c3 06       	cpc	r12, r19
      d8:	c3 06       	cpc	r12, r19
      da:	c3 06       	cpc	r12, r19
      dc:	c3 06       	cpc	r12, r19
      de:	c3 06       	cpc	r12, r19
      e0:	c3 06       	cpc	r12, r19
      e2:	c3 06       	cpc	r12, r19
      e4:	3b 06       	cpc	r3, r27
      e6:	c3 06       	cpc	r12, r19
      e8:	53 06       	cpc	r5, r19
      ea:	03 06       	cpc	r0, r19
      ec:	1b 06       	cpc	r1, r27
      ee:	c3 06       	cpc	r12, r19
      f0:	43 06       	cpc	r4, r19
      f2:	c3 06       	cpc	r12, r19
      f4:	33 06       	cpc	r3, r19
      f6:	c3 06       	cpc	r12, r19
      f8:	c3 06       	cpc	r12, r19
      fa:	2b 06       	cpc	r2, r27
      fc:	c3 06       	cpc	r12, r19
      fe:	fb 05       	cpc	r31, r11
     100:	eb 05       	cpc	r30, r11
     102:	f3 05       	cpc	r31, r3
     104:	c3 06       	cpc	r12, r19
     106:	23 06       	cpc	r2, r19
     108:	4b 06       	cpc	r4, r27
     10a:	13 06       	cpc	r1, r19
     10c:	5b 06       	cpc	r5, r27
     10e:	c3 06       	cpc	r12, r19
     110:	c3 06       	cpc	r12, r19
     112:	c3 06       	cpc	r12, r19
     114:	0b 06       	cpc	r0, r27
     116:	46 07       	cpc	r20, r22
     118:	67 07       	cpc	r22, r23
     11a:	67 07       	cpc	r22, r23
     11c:	43 07       	cpc	r20, r19
     11e:	67 07       	cpc	r22, r23
     120:	67 07       	cpc	r22, r23
     122:	49 07       	cpc	r20, r25
     124:	4c 07       	cpc	r20, r28
     126:	4f 07       	cpc	r20, r31
     128:	52 07       	cpc	r21, r18
     12a:	55 07       	cpc	r21, r21
     12c:	58 07       	cpc	r21, r24
     12e:	5b 07       	cpc	r21, r27
     130:	5e 07       	cpc	r21, r30
     132:	61 07       	cpc	r22, r17
     134:	64 07       	cpc	r22, r20
     136:	67 07       	cpc	r22, r23
     138:	67 07       	cpc	r22, r23
     13a:	67 07       	cpc	r22, r23
     13c:	67 07       	cpc	r22, r23
     13e:	67 07       	cpc	r22, r23
     140:	67 07       	cpc	r22, r23
     142:	67 07       	cpc	r22, r23
     144:	67 07       	cpc	r22, r23
     146:	67 07       	cpc	r22, r23
     148:	67 07       	cpc	r22, r23
     14a:	67 07       	cpc	r22, r23
     14c:	67 07       	cpc	r22, r23
     14e:	67 07       	cpc	r22, r23
     150:	67 07       	cpc	r22, r23
     152:	67 07       	cpc	r22, r23
     154:	67 07       	cpc	r22, r23
     156:	67 07       	cpc	r22, r23
     158:	67 07       	cpc	r22, r23
     15a:	67 07       	cpc	r22, r23
     15c:	67 07       	cpc	r22, r23
     15e:	67 07       	cpc	r22, r23
     160:	67 07       	cpc	r22, r23
     162:	67 07       	cpc	r22, r23
     164:	67 07       	cpc	r22, r23
     166:	67 07       	cpc	r22, r23
     168:	67 07       	cpc	r22, r23
     16a:	67 07       	cpc	r22, r23
     16c:	67 07       	cpc	r22, r23
     16e:	67 07       	cpc	r22, r23
     170:	67 07       	cpc	r22, r23
     172:	67 07       	cpc	r22, r23
     174:	67 07       	cpc	r22, r23
     176:	67 07       	cpc	r22, r23
     178:	67 07       	cpc	r22, r23
     17a:	67 07       	cpc	r22, r23
     17c:	67 07       	cpc	r22, r23
     17e:	67 07       	cpc	r22, r23
     180:	67 07       	cpc	r22, r23
     182:	67 07       	cpc	r22, r23
     184:	39 07       	cpc	r19, r25
     186:	67 07       	cpc	r22, r23
     188:	3f 07       	cpc	r19, r31
     18a:	2b 07       	cpc	r18, r27
     18c:	31 07       	cpc	r19, r17
     18e:	67 07       	cpc	r22, r23
     190:	3b 07       	cpc	r19, r27
     192:	67 07       	cpc	r22, r23
     194:	37 07       	cpc	r19, r23
     196:	67 07       	cpc	r22, r23
     198:	67 07       	cpc	r22, r23
     19a:	35 07       	cpc	r19, r21
     19c:	67 07       	cpc	r22, r23
     19e:	29 07       	cpc	r18, r25
     1a0:	25 07       	cpc	r18, r21
     1a2:	27 07       	cpc	r18, r23
     1a4:	67 07       	cpc	r22, r23
     1a6:	33 07       	cpc	r19, r19
     1a8:	3d 07       	cpc	r19, r29
     1aa:	2f 07       	cpc	r18, r31
     1ac:	41 07       	cpc	r20, r17
     1ae:	67 07       	cpc	r22, r23
     1b0:	67 07       	cpc	r22, r23
     1b2:	67 07       	cpc	r22, r23
     1b4:	2d 07       	cpc	r18, r29
     1b6:	ba 08       	sbc	r11, r10
     1b8:	bd 08       	sbc	r11, r13
     1ba:	c3 08       	sbc	r12, r3
     1bc:	c6 08       	sbc	r12, r6
     1be:	c0 08       	sbc	r12, r0
     1c0:	c9 08       	sbc	r12, r9
     1c2:	cc 08       	sbc	r12, r12
     1c4:	cf 08       	sbc	r12, r15
     1c6:	e0 08       	sbc	r14, r0
     1c8:	f1 08       	sbc	r15, r1
     1ca:	02 09       	sbc	r16, r2
     1cc:	13 09       	sbc	r17, r3
     1ce:	24 09       	sbc	r18, r4
     1d0:	35 09       	sbc	r19, r5
     1d2:	eb 0c       	add	r14, r11
     1d4:	a8 0f       	add	r26, r24
     1d6:	38 0d       	add	r19, r8
     1d8:	a8 0f       	add	r26, r24
     1da:	a8 0f       	add	r26, r24
     1dc:	85 0d       	add	r24, r5
     1de:	a8 0f       	add	r26, r24
     1e0:	a8 0f       	add	r26, r24
     1e2:	a8 0f       	add	r26, r24
     1e4:	a8 0f       	add	r26, r24
     1e6:	a8 0f       	add	r26, r24
     1e8:	a8 0f       	add	r26, r24
     1ea:	a8 0f       	add	r26, r24
     1ec:	a8 0f       	add	r26, r24
     1ee:	a8 0f       	add	r26, r24
     1f0:	a6 0d       	add	r26, r6
     1f2:	b0 0d       	add	r27, r0
     1f4:	ba 0d       	add	r27, r10
     1f6:	c4 0d       	add	r28, r4
     1f8:	ce 0d       	add	r28, r14
     1fa:	d8 0d       	add	r29, r8
     1fc:	e2 0d       	add	r30, r2
     1fe:	a8 0f       	add	r26, r24
     200:	a8 0f       	add	r26, r24
     202:	a8 0f       	add	r26, r24
     204:	a8 0f       	add	r26, r24
     206:	a8 0f       	add	r26, r24
     208:	a8 0f       	add	r26, r24
     20a:	ec 0d       	add	r30, r12
     20c:	a8 0f       	add	r26, r24
     20e:	39 0e       	add	r3, r25
     210:	7b 0e       	add	r7, r27
     212:	bd 0e       	add	r11, r29
     214:	ff 0e       	add	r15, r31
     216:	73 0f       	add	r23, r19
     218:	13 10       	cpse	r1, r3
     21a:	38 10       	cpse	r3, r8
     21c:	5e 10       	cpse	r5, r14
     21e:	84 10       	cpse	r8, r4
     220:	aa 10       	cpse	r10, r10
     222:	17 11       	cpse	r17, r7
     224:	48 11       	cpse	r20, r8
     226:	6e 11       	cpse	r22, r14
     228:	79 11       	cpse	r23, r9
     22a:	84 11       	cpse	r24, r4
     22c:	93 11       	cpse	r25, r3
     22e:	a2 11       	cpse	r26, r2
     230:	b1 11       	cpse	r27, r1
     232:	c0 11       	cpse	r28, r0
     234:	cf 11       	cpse	r28, r15
     236:	de 11       	cpse	r29, r14
     238:	ed 11       	cpse	r30, r13
     23a:	fa 11       	cpse	r31, r10
     23c:	07 12       	cpse	r0, r23
     23e:	14 12       	cpse	r1, r20
     240:	21 12       	cpse	r2, r17
     242:	2e 12       	cpse	r2, r30
     244:	3b 12       	cpse	r3, r27
     246:	48 12       	cpse	r4, r24
     248:	50 12       	cpse	r5, r16
     24a:	58 12       	cpse	r5, r24
     24c:	60 12       	cpse	r6, r16
     24e:	68 12       	cpse	r6, r24
     250:	70 12       	cpse	r7, r16
     252:	78 12       	cpse	r7, r24
     254:	e9 12       	cpse	r14, r25
     256:	91 12       	cpse	r9, r17
     258:	a4 12       	cpse	r10, r20
     25a:	b7 12       	cpse	r11, r23
     25c:	ca 12       	cpse	r12, r26
     25e:	df 12       	cpse	r13, r31

00000260 <__ctors_start>:
     260:	95 04       	cpc	r9, r5
     262:	7d 08       	sbc	r7, r13
     264:	99 0c       	add	r9, r9
     266:	fc 13       	cpse	r31, r28

00000268 <__ctors_end>:
     268:	a4 05       	cpc	r26, r4
     26a:	86 08       	sbc	r8, r6
     26c:	b6 0c       	add	r11, r6
     26e:	01 14       	cp	r0, r1

00000270 <__dtors_end>:
     270:	11 24       	eor	r1, r1
     272:	1f be       	out	0x3f, r1	; 63
     274:	cf e5       	ldi	r28, 0x5F	; 95
     276:	d4 e0       	ldi	r29, 0x04	; 4
     278:	de bf       	out	0x3e, r29	; 62
     27a:	cd bf       	out	0x3d, r28	; 61

0000027c <__do_copy_data>:
     27c:	12 e0       	ldi	r17, 0x02	; 2
     27e:	a0 e6       	ldi	r26, 0x60	; 96
     280:	b0 e0       	ldi	r27, 0x00	; 0
     282:	e0 ef       	ldi	r30, 0xF0	; 240
     284:	f3 e3       	ldi	r31, 0x33	; 51
     286:	02 c0       	rjmp	.+4      	; 0x28c <__do_copy_data+0x10>
     288:	05 90       	lpm	r0, Z+
     28a:	0d 92       	st	X+, r0
     28c:	ae 3f       	cpi	r26, 0xFE	; 254
     28e:	b1 07       	cpc	r27, r17
     290:	d9 f7       	brne	.-10     	; 0x288 <__do_copy_data+0xc>

00000292 <__do_clear_bss>:
     292:	23 e0       	ldi	r18, 0x03	; 3
     294:	ae ef       	ldi	r26, 0xFE	; 254
     296:	b2 e0       	ldi	r27, 0x02	; 2
     298:	01 c0       	rjmp	.+2      	; 0x29c <.do_clear_bss_start>

0000029a <.do_clear_bss_loop>:
     29a:	1d 92       	st	X+, r1

0000029c <.do_clear_bss_start>:
     29c:	af 3c       	cpi	r26, 0xCF	; 207
     29e:	b2 07       	cpc	r27, r18
     2a0:	e1 f7       	brne	.-8      	; 0x29a <.do_clear_bss_loop>

000002a2 <__do_global_ctors>:
     2a2:	11 e0       	ldi	r17, 0x01	; 1
     2a4:	c4 e3       	ldi	r28, 0x34	; 52
     2a6:	d1 e0       	ldi	r29, 0x01	; 1
     2a8:	04 c0       	rjmp	.+8      	; 0x2b2 <__do_global_ctors+0x10>
     2aa:	21 97       	sbiw	r28, 0x01	; 1
     2ac:	fe 01       	movw	r30, r28
     2ae:	0e 94 cb 19 	call	0x3396	; 0x3396 <__tablejump2__>
     2b2:	c0 33       	cpi	r28, 0x30	; 48
     2b4:	d1 07       	cpc	r29, r17
     2b6:	c9 f7       	brne	.-14     	; 0x2aa <__do_global_ctors+0x8>
     2b8:	0e 94 92 0a 	call	0x1524	; 0x1524 <main>
     2bc:	0c 94 eb 19 	jmp	0x33d6	; 0x33d6 <__do_global_dtors>

000002c0 <__bad_interrupt>:
     2c0:	0c 94 00 00 	jmp	0	; 0x0 <__vectors>

000002c4 <_Z10ChangeProgiP9program_tc>:
Prog P9 (0, 24*60, 0, 0, 0, 0);


program_t ChangeProg (int day, program_t* day_prog, char sign)
{
	char num = static_cast<char>(day_prog[day]);
     2c4:	86 0f       	add	r24, r22
     2c6:	97 1f       	adc	r25, r23
     2c8:	fc 01       	movw	r30, r24
     2ca:	80 81       	ld	r24, Z
	num += 1*sign;
     2cc:	84 0f       	add	r24, r20
	if (num>9) num = 1;
     2ce:	8a 30       	cpi	r24, 0x0A	; 10
     2d0:	20 f4       	brcc	.+8      	; 0x2da <_Z10ChangeProgiP9program_tc+0x16>
	if (num<1) num = 9;
     2d2:	81 11       	cpse	r24, r1
     2d4:	03 c0       	rjmp	.+6      	; 0x2dc <_Z10ChangeProgiP9program_tc+0x18>
     2d6:	89 e0       	ldi	r24, 0x09	; 9
     2d8:	08 95       	ret

program_t ChangeProg (int day, program_t* day_prog, char sign)
{
	char num = static_cast<char>(day_prog[day]);
	num += 1*sign;
	if (num>9) num = 1;
     2da:	81 e0       	ldi	r24, 0x01	; 1
	if (num<1) num = 9;
	return static_cast<program_t>(num);
}
     2dc:	08 95       	ret

000002de <_Z11TextProgNumiP9program_t>:

char* TextProgNum (int day, program_t* day_prog)  // returns text "P1".."P9" according to current day program
{
	
	switch (day_prog[day])   //
     2de:	86 0f       	add	r24, r22
     2e0:	97 1f       	adc	r25, r23
     2e2:	dc 01       	movw	r26, r24
     2e4:	ec 91       	ld	r30, X
     2e6:	8e 2f       	mov	r24, r30
     2e8:	90 e0       	ldi	r25, 0x00	; 0
     2ea:	fc 01       	movw	r30, r24
     2ec:	31 97       	sbiw	r30, 0x01	; 1
     2ee:	e8 30       	cpi	r30, 0x08	; 8
     2f0:	f1 05       	cpc	r31, r1
     2f2:	e0 f4       	brcc	.+56     	; 0x32c <_Z11TextProgNumiP9program_t+0x4e>
     2f4:	e6 5d       	subi	r30, 0xD6	; 214
     2f6:	ff 4f       	sbci	r31, 0xFF	; 255
     2f8:	0c 94 cb 19 	jmp	0x3396	; 0x3396 <__tablejump2__>
		case PROG1:
		return "p1  ";
		break;
		
		case PROG2:
		return "p2  ";
     2fc:	86 ea       	ldi	r24, 0xA6	; 166
     2fe:	92 e0       	ldi	r25, 0x02	; 2
     300:	08 95       	ret
		break;
		
		case PROG3:
		return "p3  ";
     302:	8b ea       	ldi	r24, 0xAB	; 171
     304:	92 e0       	ldi	r25, 0x02	; 2
     306:	08 95       	ret
		break;
		
		case PROG4:
		return "p4  ";
     308:	80 eb       	ldi	r24, 0xB0	; 176
     30a:	92 e0       	ldi	r25, 0x02	; 2
     30c:	08 95       	ret
		break;
		
		case PROG5:
		return "p5  ";
     30e:	85 eb       	ldi	r24, 0xB5	; 181
     310:	92 e0       	ldi	r25, 0x02	; 2
     312:	08 95       	ret
		break;
		
		case PROG6:
		return "p6  ";
     314:	8a eb       	ldi	r24, 0xBA	; 186
     316:	92 e0       	ldi	r25, 0x02	; 2
     318:	08 95       	ret
		break;
		
		case PROG7:
		return "p7  ";
     31a:	8f eb       	ldi	r24, 0xBF	; 191
     31c:	92 e0       	ldi	r25, 0x02	; 2
     31e:	08 95       	ret
		break;
		
		case PROG8:
		return "p8  ";
     320:	84 ec       	ldi	r24, 0xC4	; 196
     322:	92 e0       	ldi	r25, 0x02	; 2
     324:	08 95       	ret
		break;
		
		case PROG9:
		return "p9  ";
     326:	89 ec       	ldi	r24, 0xC9	; 201
     328:	92 e0       	ldi	r25, 0x02	; 2
     32a:	08 95       	ret
{
	
	switch (day_prog[day])   //
	{
		case PROG1:
		return "p1  ";
     32c:	81 ea       	ldi	r24, 0xA1	; 161
     32e:	92 e0       	ldi	r25, 0x02	; 2
		default:
		return "p1  ";
	}

	return "p1  ";
}
     330:	08 95       	ret

00000332 <_Z11GetRoomTemplff>:

float GetRoomTemp (long int day, float t_comf, float t_eco)
{
     332:	8f 92       	push	r8
     334:	9f 92       	push	r9
     336:	af 92       	push	r10
     338:	bf 92       	push	r11
     33a:	ef 92       	push	r14
     33c:	ff 92       	push	r15
     33e:	0f 93       	push	r16
     340:	1f 93       	push	r17
     342:	49 01       	movw	r8, r18
     344:	5a 01       	movw	r10, r20
     346:	98 01       	movw	r18, r16
     348:	87 01       	movw	r16, r14
	
	switch (day_prog[day-1])   // 0 index refer to MON, 1 to TU, etc
     34a:	dc 01       	movw	r26, r24
     34c:	cb 01       	movw	r24, r22
     34e:	01 97       	sbiw	r24, 0x01	; 1
     350:	a1 09       	sbc	r26, r1
     352:	b1 09       	sbc	r27, r1
     354:	fc 01       	movw	r30, r24
     356:	ec 59       	subi	r30, 0x9C	; 156
     358:	ff 4f       	sbci	r31, 0xFF	; 255
     35a:	e0 81       	ld	r30, Z
     35c:	8e 2f       	mov	r24, r30
     35e:	90 e0       	ldi	r25, 0x00	; 0
     360:	89 30       	cpi	r24, 0x09	; 9
     362:	91 05       	cpc	r25, r1
     364:	08 f0       	brcs	.+2      	; 0x368 <_Z11GetRoomTemplff+0x36>
     366:	44 c0       	rjmp	.+136    	; 0x3f0 <_Z11GetRoomTemplff+0xbe>
     368:	fc 01       	movw	r30, r24
     36a:	ee 5c       	subi	r30, 0xCE	; 206
     36c:	ff 4f       	sbci	r31, 0xFF	; 255
     36e:	0c 94 cb 19 	jmp	0x3396	; 0x3396 <__tablejump2__>
	{
		case PROG1:  
		return P1.SetRoomTempr(t_comf, t_eco);
     372:	b5 01       	movw	r22, r10
     374:	a4 01       	movw	r20, r8
     376:	8d e6       	ldi	r24, 0x6D	; 109
     378:	93 e0       	ldi	r25, 0x03	; 3
     37a:	0e 94 77 09 	call	0x12ee	; 0x12ee <_ZN4Prog12SetRoomTemprEff>
     37e:	3e c0       	rjmp	.+124    	; 0x3fc <_Z11GetRoomTemplff+0xca>
		break;
		
		case PROG2:  
		return P2.SetRoomTempr(t_comf, t_eco);
     380:	b5 01       	movw	r22, r10
     382:	a4 01       	movw	r20, r8
     384:	81 e6       	ldi	r24, 0x61	; 97
     386:	93 e0       	ldi	r25, 0x03	; 3
     388:	0e 94 77 09 	call	0x12ee	; 0x12ee <_ZN4Prog12SetRoomTemprEff>
     38c:	37 c0       	rjmp	.+110    	; 0x3fc <_Z11GetRoomTemplff+0xca>
		break;
		
		case PROG3:  
		return P3.SetRoomTempr(t_comf, t_eco);
     38e:	b5 01       	movw	r22, r10
     390:	a4 01       	movw	r20, r8
     392:	85 e5       	ldi	r24, 0x55	; 85
     394:	93 e0       	ldi	r25, 0x03	; 3
     396:	0e 94 77 09 	call	0x12ee	; 0x12ee <_ZN4Prog12SetRoomTemprEff>
     39a:	30 c0       	rjmp	.+96     	; 0x3fc <_Z11GetRoomTemplff+0xca>
		break;
		
		case PROG4:  
		return P4.SetRoomTempr(t_comf, t_eco);
     39c:	b5 01       	movw	r22, r10
     39e:	a4 01       	movw	r20, r8
     3a0:	89 e4       	ldi	r24, 0x49	; 73
     3a2:	93 e0       	ldi	r25, 0x03	; 3
     3a4:	0e 94 77 09 	call	0x12ee	; 0x12ee <_ZN4Prog12SetRoomTemprEff>
     3a8:	29 c0       	rjmp	.+82     	; 0x3fc <_Z11GetRoomTemplff+0xca>
		break;
		
		case PROG5:  
		return P5.SetRoomTempr(t_comf, t_eco);
     3aa:	b5 01       	movw	r22, r10
     3ac:	a4 01       	movw	r20, r8
     3ae:	8d e3       	ldi	r24, 0x3D	; 61
     3b0:	93 e0       	ldi	r25, 0x03	; 3
     3b2:	0e 94 77 09 	call	0x12ee	; 0x12ee <_ZN4Prog12SetRoomTemprEff>
     3b6:	22 c0       	rjmp	.+68     	; 0x3fc <_Z11GetRoomTemplff+0xca>
		break;
		
		case PROG6:  
		return P6.SetRoomTempr(t_comf, t_eco);
     3b8:	b5 01       	movw	r22, r10
     3ba:	a4 01       	movw	r20, r8
     3bc:	81 e3       	ldi	r24, 0x31	; 49
     3be:	93 e0       	ldi	r25, 0x03	; 3
     3c0:	0e 94 77 09 	call	0x12ee	; 0x12ee <_ZN4Prog12SetRoomTemprEff>
     3c4:	1b c0       	rjmp	.+54     	; 0x3fc <_Z11GetRoomTemplff+0xca>
		break;
	
		case PROG7:  
		return P7.SetRoomTempr(t_comf, t_eco);
     3c6:	b5 01       	movw	r22, r10
     3c8:	a4 01       	movw	r20, r8
     3ca:	85 e2       	ldi	r24, 0x25	; 37
     3cc:	93 e0       	ldi	r25, 0x03	; 3
     3ce:	0e 94 77 09 	call	0x12ee	; 0x12ee <_ZN4Prog12SetRoomTemprEff>
     3d2:	14 c0       	rjmp	.+40     	; 0x3fc <_Z11GetRoomTemplff+0xca>
		break;
		
		case PROG8:  
		return P8.SetRoomTempr(t_comf, t_eco);
     3d4:	b5 01       	movw	r22, r10
     3d6:	a4 01       	movw	r20, r8
     3d8:	89 e1       	ldi	r24, 0x19	; 25
     3da:	93 e0       	ldi	r25, 0x03	; 3
     3dc:	0e 94 77 09 	call	0x12ee	; 0x12ee <_ZN4Prog12SetRoomTemprEff>
     3e0:	0d c0       	rjmp	.+26     	; 0x3fc <_Z11GetRoomTemplff+0xca>
		break;
		
		case PROG9:  
		return P9.SetRoomTempr(t_comf, t_eco);
     3e2:	b5 01       	movw	r22, r10
     3e4:	a4 01       	movw	r20, r8
     3e6:	8d e0       	ldi	r24, 0x0D	; 13
     3e8:	93 e0       	ldi	r25, 0x03	; 3
     3ea:	0e 94 77 09 	call	0x12ee	; 0x12ee <_ZN4Prog12SetRoomTemprEff>
     3ee:	06 c0       	rjmp	.+12     	; 0x3fc <_Z11GetRoomTemplff+0xca>
		break;
		
		default:
		return P1.SetRoomTempr(t_comf, t_eco);
     3f0:	b5 01       	movw	r22, r10
     3f2:	a4 01       	movw	r20, r8
     3f4:	8d e6       	ldi	r24, 0x6D	; 109
     3f6:	93 e0       	ldi	r25, 0x03	; 3
     3f8:	0e 94 77 09 	call	0x12ee	; 0x12ee <_ZN4Prog12SetRoomTemprEff>
	}
	
}
     3fc:	1f 91       	pop	r17
     3fe:	0f 91       	pop	r16
     400:	ff 90       	pop	r15
     402:	ef 90       	pop	r14
     404:	bf 90       	pop	r11
     406:	af 90       	pop	r10
     408:	9f 90       	pop	r9
     40a:	8f 90       	pop	r8
     40c:	08 95       	ret

0000040e <_Z27GetFlowTemperatureFromCurvefffff>:


 float GetFlowTemperatureFromCurve (float the_T_outside, float the_heating_curve, float the_room_t, float tflow_max, float tflow_min)       
{
     40e:	6f 92       	push	r6
     410:	7f 92       	push	r7
     412:	8f 92       	push	r8
     414:	9f 92       	push	r9
     416:	af 92       	push	r10
     418:	bf 92       	push	r11
     41a:	cf 92       	push	r12
     41c:	df 92       	push	r13
     41e:	ef 92       	push	r14
     420:	ff 92       	push	r15
     422:	0f 93       	push	r16
     424:	1f 93       	push	r17
     426:	cf 93       	push	r28
     428:	df 93       	push	r29
     42a:	cd b7       	in	r28, 0x3d	; 61
     42c:	de b7       	in	r29, 0x3e	; 62
     42e:	28 97       	sbiw	r28, 0x08	; 8
     430:	0f b6       	in	r0, 0x3f	; 63
     432:	f8 94       	cli
     434:	de bf       	out	0x3e, r29	; 62
     436:	0f be       	out	0x3f, r0	; 63
     438:	cd bf       	out	0x3d, r28	; 61
     43a:	69 83       	std	Y+1, r22	; 0x01
     43c:	7a 83       	std	Y+2, r23	; 0x02
     43e:	8b 83       	std	Y+3, r24	; 0x03
     440:	9c 83       	std	Y+4, r25	; 0x04
     442:	ed 82       	std	Y+5, r14	; 0x05
     444:	fe 82       	std	Y+6, r15	; 0x06
     446:	0f 83       	std	Y+7, r16	; 0x07
     448:	18 87       	std	Y+8, r17	; 0x08
     44a:	99 8c       	ldd	r9, Y+25	; 0x19
     44c:	8a 8c       	ldd	r8, Y+26	; 0x1a
     44e:	7b 8c       	ldd	r7, Y+27	; 0x1b
     450:	6c 8c       	ldd	r6, Y+28	; 0x1c
	float m = -the_heating_curve;
     452:	ca 01       	movw	r24, r20
     454:	b9 01       	movw	r22, r18
     456:	90 58       	subi	r25, 0x80	; 128
	float b = the_room_t+30;
	float x = the_T_outside;
	
	
	float y = m*x+b;
     458:	29 81       	ldd	r18, Y+1	; 0x01
     45a:	3a 81       	ldd	r19, Y+2	; 0x02
     45c:	4b 81       	ldd	r20, Y+3	; 0x03
     45e:	5c 81       	ldd	r21, Y+4	; 0x04
     460:	0e 94 5e 19 	call	0x32bc	; 0x32bc <__mulsf3>
     464:	69 83       	std	Y+1, r22	; 0x01
     466:	7a 83       	std	Y+2, r23	; 0x02
     468:	8b 83       	std	Y+3, r24	; 0x03
     46a:	9c 83       	std	Y+4, r25	; 0x04


 float GetFlowTemperatureFromCurve (float the_T_outside, float the_heating_curve, float the_room_t, float tflow_max, float tflow_min)       
{
	float m = -the_heating_curve;
	float b = the_room_t+30;
     46c:	20 e0       	ldi	r18, 0x00	; 0
     46e:	30 e0       	ldi	r19, 0x00	; 0
     470:	40 ef       	ldi	r20, 0xF0	; 240
     472:	51 e4       	ldi	r21, 0x41	; 65
     474:	c8 01       	movw	r24, r16
     476:	b7 01       	movw	r22, r14
     478:	0e 94 95 17 	call	0x2f2a	; 0x2f2a <__addsf3>
     47c:	9b 01       	movw	r18, r22
     47e:	ac 01       	movw	r20, r24
	float x = the_T_outside;
	
	
	float y = m*x+b;
     480:	69 81       	ldd	r22, Y+1	; 0x01
     482:	7a 81       	ldd	r23, Y+2	; 0x02
     484:	8b 81       	ldd	r24, Y+3	; 0x03
     486:	9c 81       	ldd	r25, Y+4	; 0x04
     488:	0e 94 95 17 	call	0x2f2a	; 0x2f2a <__addsf3>
     48c:	f6 2e       	mov	r15, r22
     48e:	07 2f       	mov	r16, r23
     490:	18 2f       	mov	r17, r24
     492:	e9 2e       	mov	r14, r25
	if (y>tflow_max) y=tflow_max;
     494:	2a 2d       	mov	r18, r10
     496:	3b 2d       	mov	r19, r11
     498:	4c 2d       	mov	r20, r12
     49a:	5d 2d       	mov	r21, r13
     49c:	0e 94 59 19 	call	0x32b2	; 0x32b2 <__gesf2>
     4a0:	18 16       	cp	r1, r24
     4a2:	24 f4       	brge	.+8      	; 0x4ac <__stack+0x4d>
     4a4:	fa 2c       	mov	r15, r10
     4a6:	0b 2d       	mov	r16, r11
     4a8:	1c 2d       	mov	r17, r12
     4aa:	ed 2c       	mov	r14, r13
	if (y<tflow_min) y=tflow_min;
     4ac:	29 2d       	mov	r18, r9
     4ae:	38 2d       	mov	r19, r8
     4b0:	47 2d       	mov	r20, r7
     4b2:	56 2d       	mov	r21, r6
     4b4:	6f 2d       	mov	r22, r15
     4b6:	70 2f       	mov	r23, r16
     4b8:	81 2f       	mov	r24, r17
     4ba:	9e 2d       	mov	r25, r14
     4bc:	0e 94 01 18 	call	0x3002	; 0x3002 <__cmpsf2>
     4c0:	88 23       	and	r24, r24
     4c2:	24 f4       	brge	.+8      	; 0x4cc <__stack+0x6d>
     4c4:	f9 2c       	mov	r15, r9
     4c6:	08 2d       	mov	r16, r8
     4c8:	17 2d       	mov	r17, r7
     4ca:	e6 2c       	mov	r14, r6
	if (sens_err_G) y=tflow_max;
     4cc:	80 91 c4 03 	lds	r24, 0x03C4
     4d0:	88 23       	and	r24, r24
     4d2:	21 f0       	breq	.+8      	; 0x4dc <__stack+0x7d>
     4d4:	fa 2c       	mov	r15, r10
     4d6:	0b 2d       	mov	r16, r11
     4d8:	1c 2d       	mov	r17, r12
     4da:	ed 2c       	mov	r14, r13
	
	return y;	 	
	
}
     4dc:	6f 2d       	mov	r22, r15
     4de:	70 2f       	mov	r23, r16
     4e0:	81 2f       	mov	r24, r17
     4e2:	9e 2d       	mov	r25, r14
     4e4:	28 96       	adiw	r28, 0x08	; 8
     4e6:	0f b6       	in	r0, 0x3f	; 63
     4e8:	f8 94       	cli
     4ea:	de bf       	out	0x3e, r29	; 62
     4ec:	0f be       	out	0x3f, r0	; 63
     4ee:	cd bf       	out	0x3d, r28	; 61
     4f0:	df 91       	pop	r29
     4f2:	cf 91       	pop	r28
     4f4:	1f 91       	pop	r17
     4f6:	0f 91       	pop	r16
     4f8:	ff 90       	pop	r15
     4fa:	ef 90       	pop	r14
     4fc:	df 90       	pop	r13
     4fe:	cf 90       	pop	r12
     500:	bf 90       	pop	r11
     502:	af 90       	pop	r10
     504:	9f 90       	pop	r9
     506:	8f 90       	pop	r8
     508:	7f 90       	pop	r7
     50a:	6f 90       	pop	r6
     50c:	08 95       	ret

0000050e <_Z13PID_regulatorfffff>:
// the_Ki - коефіцієнт інтегральної складової
// the_Kd - коефіцієнт диференційної складової


float PID_regulator (float the_T_flow_setpoin,  float the_T_flow_sensor, float the_Kp, float the_Ki, float the_Kd)
{
     50e:	4f 92       	push	r4
     510:	5f 92       	push	r5
     512:	6f 92       	push	r6
     514:	7f 92       	push	r7
     516:	af 92       	push	r10
     518:	bf 92       	push	r11
     51a:	cf 92       	push	r12
     51c:	df 92       	push	r13
     51e:	ef 92       	push	r14
     520:	ff 92       	push	r15
     522:	0f 93       	push	r16
     524:	1f 93       	push	r17
     526:	cf 93       	push	r28
     528:	df 93       	push	r29
     52a:	cd b7       	in	r28, 0x3d	; 61
     52c:	de b7       	in	r29, 0x3e	; 62
     52e:	60 97       	sbiw	r28, 0x10	; 16
     530:	0f b6       	in	r0, 0x3f	; 63
     532:	f8 94       	cli
     534:	de bf       	out	0x3e, r29	; 62
     536:	0f be       	out	0x3f, r0	; 63
     538:	cd bf       	out	0x3d, r28	; 61
     53a:	69 83       	std	Y+1, r22	; 0x01
     53c:	7a 83       	std	Y+2, r23	; 0x02
     53e:	8b 83       	std	Y+3, r24	; 0x03
     540:	9c 83       	std	Y+4, r25	; 0x04
     542:	29 01       	movw	r4, r18
     544:	3a 01       	movw	r6, r20
     546:	e9 86       	std	Y+9, r14	; 0x09
     548:	fa 86       	std	Y+10, r15	; 0x0a
     54a:	0b 87       	std	Y+11, r16	; 0x0b
     54c:	1c 87       	std	Y+12, r17	; 0x0c
	static float T_flow_sensor_previous = 20;     // реальне виміряне значення темп. подаючої води В ПОПЕРЕДНІЙ ітерації. Перше значення приймаємо 20
	static float mismatch_sum = 0; //сума розузгоджень 
	float mismatch_dif =  the_T_flow_sensor - T_flow_sensor_previous ;  //похибка диференційна
     54e:	20 91 60 00 	lds	r18, 0x0060
     552:	30 91 61 00 	lds	r19, 0x0061
     556:	40 91 62 00 	lds	r20, 0x0062
     55a:	50 91 63 00 	lds	r21, 0x0063
     55e:	c3 01       	movw	r24, r6
     560:	b2 01       	movw	r22, r4
     562:	0e 94 94 17 	call	0x2f28	; 0x2f28 <__subsf3>
     566:	6d 87       	std	Y+13, r22	; 0x0d
     568:	7e 87       	std	Y+14, r23	; 0x0e
     56a:	8f 87       	std	Y+15, r24	; 0x0f
     56c:	98 8b       	std	Y+16, r25	; 0x10
	float mismatch = the_T_flow_setpoin - the_T_flow_sensor ;		// розузгодження
     56e:	a3 01       	movw	r20, r6
     570:	92 01       	movw	r18, r4
     572:	69 81       	ldd	r22, Y+1	; 0x01
     574:	7a 81       	ldd	r23, Y+2	; 0x02
     576:	8b 81       	ldd	r24, Y+3	; 0x03
     578:	9c 81       	ldd	r25, Y+4	; 0x04
     57a:	0e 94 94 17 	call	0x2f28	; 0x2f28 <__subsf3>
     57e:	69 83       	std	Y+1, r22	; 0x01
     580:	7a 83       	std	Y+2, r23	; 0x02
     582:	8b 83       	std	Y+3, r24	; 0x03
     584:	9c 83       	std	Y+4, r25	; 0x04
	mismatch_sum += mismatch;
     586:	20 91 04 03 	lds	r18, 0x0304
     58a:	30 91 05 03 	lds	r19, 0x0305
     58e:	40 91 06 03 	lds	r20, 0x0306
     592:	50 91 07 03 	lds	r21, 0x0307
     596:	0e 94 95 17 	call	0x2f2a	; 0x2f2a <__addsf3>
     59a:	6d 83       	std	Y+5, r22	; 0x05
     59c:	7e 83       	std	Y+6, r23	; 0x06
     59e:	8f 83       	std	Y+7, r24	; 0x07
     5a0:	98 87       	std	Y+8, r25	; 0x08
     5a2:	60 93 04 03 	sts	0x0304, r22
     5a6:	70 93 05 03 	sts	0x0305, r23
     5aa:	80 93 06 03 	sts	0x0306, r24
     5ae:	90 93 07 03 	sts	0x0307, r25
	
	float y = the_Kp/100 * mismatch + the_Ki/100*mismatch_sum  - the_Kd/100 * mismatch_dif;      //  - під розрахунок
     5b2:	20 e0       	ldi	r18, 0x00	; 0
     5b4:	30 e0       	ldi	r19, 0x00	; 0
     5b6:	48 ec       	ldi	r20, 0xC8	; 200
     5b8:	52 e4       	ldi	r21, 0x42	; 66
     5ba:	c8 01       	movw	r24, r16
     5bc:	b7 01       	movw	r22, r14
     5be:	0e 94 06 18 	call	0x300c	; 0x300c <__divsf3>
     5c2:	29 81       	ldd	r18, Y+1	; 0x01
     5c4:	3a 81       	ldd	r19, Y+2	; 0x02
     5c6:	4b 81       	ldd	r20, Y+3	; 0x03
     5c8:	5c 81       	ldd	r21, Y+4	; 0x04
     5ca:	0e 94 5e 19 	call	0x32bc	; 0x32bc <__mulsf3>
     5ce:	69 83       	std	Y+1, r22	; 0x01
     5d0:	7a 83       	std	Y+2, r23	; 0x02
     5d2:	8b 83       	std	Y+3, r24	; 0x03
     5d4:	9c 83       	std	Y+4, r25	; 0x04
     5d6:	20 e0       	ldi	r18, 0x00	; 0
     5d8:	30 e0       	ldi	r19, 0x00	; 0
     5da:	48 ec       	ldi	r20, 0xC8	; 200
     5dc:	52 e4       	ldi	r21, 0x42	; 66
     5de:	c6 01       	movw	r24, r12
     5e0:	b5 01       	movw	r22, r10
     5e2:	0e 94 06 18 	call	0x300c	; 0x300c <__divsf3>
     5e6:	9b 01       	movw	r18, r22
     5e8:	ac 01       	movw	r20, r24
     5ea:	6d 81       	ldd	r22, Y+5	; 0x05
     5ec:	7e 81       	ldd	r23, Y+6	; 0x06
     5ee:	8f 81       	ldd	r24, Y+7	; 0x07
     5f0:	98 85       	ldd	r25, Y+8	; 0x08
     5f2:	0e 94 5e 19 	call	0x32bc	; 0x32bc <__mulsf3>
     5f6:	9b 01       	movw	r18, r22
     5f8:	ac 01       	movw	r20, r24
     5fa:	69 81       	ldd	r22, Y+1	; 0x01
     5fc:	7a 81       	ldd	r23, Y+2	; 0x02
     5fe:	8b 81       	ldd	r24, Y+3	; 0x03
     600:	9c 81       	ldd	r25, Y+4	; 0x04
     602:	0e 94 95 17 	call	0x2f2a	; 0x2f2a <__addsf3>
     606:	6b 01       	movw	r12, r22
     608:	7c 01       	movw	r14, r24
     60a:	20 e0       	ldi	r18, 0x00	; 0
     60c:	30 e0       	ldi	r19, 0x00	; 0
     60e:	48 ec       	ldi	r20, 0xC8	; 200
     610:	52 e4       	ldi	r21, 0x42	; 66
     612:	69 a1       	ldd	r22, Y+33	; 0x21
     614:	7a a1       	ldd	r23, Y+34	; 0x22
     616:	8b a1       	ldd	r24, Y+35	; 0x23
     618:	9c a1       	ldd	r25, Y+36	; 0x24
     61a:	0e 94 06 18 	call	0x300c	; 0x300c <__divsf3>
     61e:	2d 85       	ldd	r18, Y+13	; 0x0d
     620:	3e 85       	ldd	r19, Y+14	; 0x0e
     622:	4f 85       	ldd	r20, Y+15	; 0x0f
     624:	58 89       	ldd	r21, Y+16	; 0x10
     626:	0e 94 5e 19 	call	0x32bc	; 0x32bc <__mulsf3>
     62a:	9b 01       	movw	r18, r22
     62c:	ac 01       	movw	r20, r24
     62e:	c7 01       	movw	r24, r14
     630:	b6 01       	movw	r22, r12
     632:	0e 94 94 17 	call	0x2f28	; 0x2f28 <__subsf3>
     636:	6b 01       	movw	r12, r22
     638:	7c 01       	movw	r14, r24
	
	if (y>100)              // обмеження границь під регулювання
     63a:	20 e0       	ldi	r18, 0x00	; 0
     63c:	30 e0       	ldi	r19, 0x00	; 0
     63e:	48 ec       	ldi	r20, 0xC8	; 200
     640:	52 e4       	ldi	r21, 0x42	; 66
     642:	0e 94 59 19 	call	0x32b2	; 0x32b2 <__gesf2>
     646:	18 16       	cp	r1, r24
     648:	9c f0       	brlt	.+38     	; 0x670 <_Z13PID_regulatorfffff+0x162>
	{
		y = 100;
	}
	if (y<-100)
     64a:	20 e0       	ldi	r18, 0x00	; 0
     64c:	30 e0       	ldi	r19, 0x00	; 0
     64e:	48 ec       	ldi	r20, 0xC8	; 200
     650:	52 ec       	ldi	r21, 0xC2	; 194
     652:	c7 01       	movw	r24, r14
     654:	b6 01       	movw	r22, r12
     656:	0e 94 01 18 	call	0x3002	; 0x3002 <__cmpsf2>
     65a:	88 23       	and	r24, r24
     65c:	8c f4       	brge	.+34     	; 0x680 <_Z13PID_regulatorfffff+0x172>
	{
		y = -100;
     65e:	0f 2e       	mov	r0, r31
     660:	c1 2c       	mov	r12, r1
     662:	d1 2c       	mov	r13, r1
     664:	f8 ec       	ldi	r31, 0xC8	; 200
     666:	ef 2e       	mov	r14, r31
     668:	f2 ec       	ldi	r31, 0xC2	; 194
     66a:	ff 2e       	mov	r15, r31
     66c:	f0 2d       	mov	r31, r0
     66e:	08 c0       	rjmp	.+16     	; 0x680 <_Z13PID_regulatorfffff+0x172>
	
	float y = the_Kp/100 * mismatch + the_Ki/100*mismatch_sum  - the_Kd/100 * mismatch_dif;      //  - під розрахунок
	
	if (y>100)              // обмеження границь під регулювання
	{
		y = 100;
     670:	0f 2e       	mov	r0, r31
     672:	c1 2c       	mov	r12, r1
     674:	d1 2c       	mov	r13, r1
     676:	f8 ec       	ldi	r31, 0xC8	; 200
     678:	ef 2e       	mov	r14, r31
     67a:	f2 e4       	ldi	r31, 0x42	; 66
     67c:	ff 2e       	mov	r15, r31
     67e:	f0 2d       	mov	r31, r0
	if (y<-100)
	{
		y = -100;
	}
	
	T_flow_sensor_previous = the_T_flow_sensor ;
     680:	40 92 60 00 	sts	0x0060, r4
     684:	50 92 61 00 	sts	0x0061, r5
     688:	60 92 62 00 	sts	0x0062, r6
     68c:	70 92 63 00 	sts	0x0063, r7
	
	return y;
}
     690:	c7 01       	movw	r24, r14
     692:	b6 01       	movw	r22, r12
     694:	60 96       	adiw	r28, 0x10	; 16
     696:	0f b6       	in	r0, 0x3f	; 63
     698:	f8 94       	cli
     69a:	de bf       	out	0x3e, r29	; 62
     69c:	0f be       	out	0x3f, r0	; 63
     69e:	cd bf       	out	0x3d, r28	; 61
     6a0:	df 91       	pop	r29
     6a2:	cf 91       	pop	r28
     6a4:	1f 91       	pop	r17
     6a6:	0f 91       	pop	r16
     6a8:	ff 90       	pop	r15
     6aa:	ef 90       	pop	r14
     6ac:	df 90       	pop	r13
     6ae:	cf 90       	pop	r12
     6b0:	bf 90       	pop	r11
     6b2:	af 90       	pop	r10
     6b4:	7f 90       	pop	r7
     6b6:	6f 90       	pop	r6
     6b8:	5f 90       	pop	r5
     6ba:	4f 90       	pop	r4
     6bc:	08 95       	ret

000006be <_Z9StopServov>:



void StopServo (void)
{
		PORT_SERVO_OPEN &= ~(1<<PIN_OPEN);  // вивід нуль на пін відкривання
     6be:	de 98       	cbi	0x1b, 6	; 27
		PORT_SERVO_CLOSE  &= ~(1<<PIN_CLOSE);    // виводимо 0 на ніжку закривання
     6c0:	df 98       	cbi	0x1b, 7	; 27
		DDR_SERVO_OPEN |=  1<<PIN_OPEN;  // перестраховуємось що ніжка  "відкрити" налаштована як вихід
     6c2:	d6 9a       	sbi	0x1a, 6	; 26
		DDR_SERVO_CLOSE |=  1<<PIN_CLOSE;  //  аналогічно
     6c4:	d7 9a       	sbi	0x1a, 7	; 26
     6c6:	08 95       	ret

000006c8 <_Z9openServov>:
 // Ці параметри можна змінювати:
*/ 

void openServo(void)
{
	PORT_SERVO_CLOSE  &= ~(1<<PIN_CLOSE);    // виводимо 0 на ніжку закривання    // виводимо -- зупиняємо
     6c8:	df 98       	cbi	0x1b, 7	; 27
	PORT_SERVO_OPEN |=  (1<<PIN_OPEN);    // виводимо сигнал на "відкривання"
     6ca:	de 9a       	sbi	0x1b, 6	; 27
	DDR_SERVO_OPEN |=  (1<<PIN_OPEN);  // перестраховуємось що ніжка  "відкрити" налаштована як вихід
     6cc:	d6 9a       	sbi	0x1a, 6	; 26
     6ce:	08 95       	ret

000006d0 <_Z12ServoControlff>:
	PORT_SERVO_CLOSE |=  (1<<PIN_CLOSE);  // подаємо сигнал на "закривання"
	DDR_SERVO_OPEN |=  (1<<PIN_OPEN);  // перестраховуємось що ніжка  "відкрити" налаштована як вихід
}

float ServoControl  (float the_PID_signal, float the_servo_period)
{
     6d0:	cf 92       	push	r12
     6d2:	df 92       	push	r13
     6d4:	ef 92       	push	r14
     6d6:	ff 92       	push	r15
     6d8:	69 01       	movw	r12, r18
     6da:	7a 01       	movw	r14, r20
	float D;   // тривалість імпульса
	
	static float previous_D;  // сюди записується тривалість імпулсу, якщо вона попала в зону нечутливості,
									//	щоб наступного разу додати її до заново порахованої
	D =  previous_D + the_servo_period*(the_PID_signal/100)  ;   //формула вираховуємо тривалість імпульсу 
     6dc:	20 e0       	ldi	r18, 0x00	; 0
     6de:	30 e0       	ldi	r19, 0x00	; 0
     6e0:	48 ec       	ldi	r20, 0xC8	; 200
     6e2:	52 e4       	ldi	r21, 0x42	; 66
     6e4:	0e 94 06 18 	call	0x300c	; 0x300c <__divsf3>
     6e8:	a7 01       	movw	r20, r14
     6ea:	96 01       	movw	r18, r12
     6ec:	0e 94 5e 19 	call	0x32bc	; 0x32bc <__mulsf3>
     6f0:	20 91 00 03 	lds	r18, 0x0300
     6f4:	30 91 01 03 	lds	r19, 0x0301
     6f8:	40 91 02 03 	lds	r20, 0x0302
     6fc:	50 91 03 03 	lds	r21, 0x0303
     700:	0e 94 95 17 	call	0x2f2a	; 0x2f2a <__addsf3>
     704:	6b 01       	movw	r12, r22
     706:	7c 01       	movw	r14, r24
																							//	+ попередній інтервал якщо він попадав
																							// в зону нечутливості			
	if (D == 0 )  // якщо сигнал під-регулятора дор. 0, то зупиняємо сервопривід
     708:	20 e0       	ldi	r18, 0x00	; 0
     70a:	30 e0       	ldi	r19, 0x00	; 0
     70c:	a9 01       	movw	r20, r18
     70e:	0e 94 01 18 	call	0x3002	; 0x3002 <__cmpsf2>
     712:	81 11       	cpse	r24, r1
     714:	06 c0       	rjmp	.+12     	; 0x722 <_Z12ServoControlff+0x52>
	{		
		StopServo(); 
     716:	0e 94 5f 03 	call	0x6be	; 0x6be <_Z9StopServov>
		return 0;  //тривалість імпульсу = 0
     71a:	60 e0       	ldi	r22, 0x00	; 0
     71c:	70 e0       	ldi	r23, 0x00	; 0
     71e:	cb 01       	movw	r24, r22
     720:	51 c0       	rjmp	.+162    	; 0x7c4 <_Z12ServoControlff+0xf4>
	}	

	if  (D > 0)   // якщо від ПІД-регулятора отримана команда "відкривати"
     722:	20 e0       	ldi	r18, 0x00	; 0
     724:	30 e0       	ldi	r19, 0x00	; 0
     726:	a9 01       	movw	r20, r18
     728:	c7 01       	movw	r24, r14
     72a:	b6 01       	movw	r22, r12
     72c:	0e 94 59 19 	call	0x32b2	; 0x32b2 <__gesf2>
     730:	18 16       	cp	r1, r24
     732:	2c f5       	brge	.+74     	; 0x77e <_Z12ServoControlff+0xae>
	{	
		//спочатку перестраховуємось -- зупиняємо сигнал "закривання"
				
		if  (  D >= INSENSITIVE_ZONE  )   // перевіряємо якщо тривалість імпульсу не попадає в зону нечутливості, тоді вивід
     734:	20 e0       	ldi	r18, 0x00	; 0
     736:	30 e0       	ldi	r19, 0x00	; 0
     738:	4a e7       	ldi	r20, 0x7A	; 122
     73a:	54 e4       	ldi	r21, 0x44	; 68
     73c:	c7 01       	movw	r24, r14
     73e:	b6 01       	movw	r22, r12
     740:	0e 94 59 19 	call	0x32b2	; 0x32b2 <__gesf2>
     744:	88 23       	and	r24, r24
     746:	6c f0       	brlt	.+26     	; 0x762 <_Z12ServoControlff+0x92>
		{				
			previous_D = 0; // обнулюємо 	    
     748:	10 92 00 03 	sts	0x0300, r1
     74c:	10 92 01 03 	sts	0x0301, r1
     750:	10 92 02 03 	sts	0x0302, r1
     754:	10 92 03 03 	sts	0x0303, r1
			openServo();
     758:	0e 94 64 03 	call	0x6c8	; 0x6c8 <_Z9openServov>
			return D;   //виходимо з функції, передаємо тривалість "відкривання"
     75c:	c7 01       	movw	r24, r14
     75e:	b6 01       	movw	r22, r12
     760:	31 c0       	rjmp	.+98     	; 0x7c4 <_Z12ServoControlff+0xf4>
		}
		else  // якщо тривалість імпульсу потрапляє в зону нечутливості сервоприводу то запамятати значення до наступного виклику функції
		{
			previous_D = D;   // запамятати вирахований інтервал імпульсу для сумування наступного разу
     762:	c0 92 00 03 	sts	0x0300, r12
     766:	d0 92 01 03 	sts	0x0301, r13
     76a:	e0 92 02 03 	sts	0x0302, r14
     76e:	f0 92 03 03 	sts	0x0303, r15
			StopServo();   // вивід нуль на пін відкривання	 //  зупиняємо "відкривання"
     772:	0e 94 5f 03 	call	0x6be	; 0x6be <_Z9StopServov>
			return 0;  //тривалість імпульсу = 0
     776:	60 e0       	ldi	r22, 0x00	; 0
     778:	70 e0       	ldi	r23, 0x00	; 0
     77a:	cb 01       	movw	r24, r22
     77c:	23 c0       	rjmp	.+70     	; 0x7c4 <_Z12ServoControlff+0xf4>
	else  // сигнал на "закривання"
	{
		 // Спочатку перестраховуємось що "відкривання" зупинене
		
		
		if  (-1*D > INSENSITIVE_ZONE)   // перевіряємо, якщо тривалість імпульсу не попадає в зону нечутливості, тоді вивід
     77e:	20 e0       	ldi	r18, 0x00	; 0
     780:	30 e0       	ldi	r19, 0x00	; 0
     782:	4a e7       	ldi	r20, 0x7A	; 122
     784:	54 ec       	ldi	r21, 0xC4	; 196
     786:	c7 01       	movw	r24, r14
     788:	b6 01       	movw	r22, r12
     78a:	0e 94 01 18 	call	0x3002	; 0x3002 <__cmpsf2>
     78e:	88 23       	and	r24, r24
     790:	64 f4       	brge	.+24     	; 0x7aa <_Z12ServoControlff+0xda>
		{															// -1 -- щоб отримати абс значення			
			previous_D = 0; // входу в інтервал нечутливості немає
     792:	10 92 00 03 	sts	0x0300, r1
     796:	10 92 01 03 	sts	0x0301, r1
     79a:	10 92 02 03 	sts	0x0302, r1
     79e:	10 92 03 03 	sts	0x0303, r1
			return -1*D;   //виходимо з функції, передаємо тривалість "закривання" (його абсолютне значення) 		
     7a2:	c7 01       	movw	r24, r14
     7a4:	b6 01       	movw	r22, r12
     7a6:	90 58       	subi	r25, 0x80	; 128
     7a8:	0d c0       	rjmp	.+26     	; 0x7c4 <_Z12ServoControlff+0xf4>
		}
		else  // якщо тривалість імпульсу потрапляє в зону нечутливості сервоприводу
		{
			previous_D = D;  // запамятати вирахований інтервал імпульсу для сумування наступного разу
     7aa:	c0 92 00 03 	sts	0x0300, r12
     7ae:	d0 92 01 03 	sts	0x0301, r13
     7b2:	e0 92 02 03 	sts	0x0302, r14
     7b6:	f0 92 03 03 	sts	0x0303, r15
			StopServo();     // виводимо 0 на ніжку закривання    //  зупиняємо "закривання" 
     7ba:	0e 94 5f 03 	call	0x6be	; 0x6be <_Z9StopServov>
			return 0;  //тривалість імпульсу = 0
     7be:	60 e0       	ldi	r22, 0x00	; 0
     7c0:	70 e0       	ldi	r23, 0x00	; 0
     7c2:	cb 01       	movw	r24, r22
		}
	}
}
     7c4:	ff 90       	pop	r15
     7c6:	ef 90       	pop	r14
     7c8:	df 90       	pop	r13
     7ca:	cf 90       	pop	r12
     7cc:	08 95       	ret

000007ce <_Z17InterruptingServof>:

repeatingHandler servo;

void InterruptingServo (float imp_duration)
{
     7ce:	cf 92       	push	r12
     7d0:	df 92       	push	r13
     7d2:	ef 92       	push	r14
     7d4:	ff 92       	push	r15
     7d6:	6b 01       	movw	r12, r22
     7d8:	7c 01       	movw	r14, r24
	static uint16_t imp = 0;
	if (imp_duration == 0) 
     7da:	20 e0       	ldi	r18, 0x00	; 0
     7dc:	30 e0       	ldi	r19, 0x00	; 0
     7de:	a9 01       	movw	r20, r18
     7e0:	0e 94 01 18 	call	0x3002	; 0x3002 <__cmpsf2>
     7e4:	81 11       	cpse	r24, r1
     7e6:	03 c0       	rjmp	.+6      	; 0x7ee <_Z17InterruptingServof+0x20>
	{
		StopServo();
     7e8:	0e 94 5f 03 	call	0x6be	; 0x6be <_Z9StopServov>
		return;
     7ec:	2d c0       	rjmp	.+90     	; 0x848 <_Z17InterruptingServof+0x7a>
	}
		
	if (static_cast<uint16_t>(imp_duration) != imp)  //if impuls duration has changed - begin count down again
     7ee:	c7 01       	movw	r24, r14
     7f0:	b6 01       	movw	r22, r12
     7f2:	0e 94 78 18 	call	0x30f0	; 0x30f0 <__fixunssfsi>
     7f6:	20 91 fe 02 	lds	r18, 0x02FE
     7fa:	30 91 ff 02 	lds	r19, 0x02FF
     7fe:	26 17       	cp	r18, r22
     800:	37 07       	cpc	r19, r23
     802:	31 f0       	breq	.+12     	; 0x810 <_Z17InterruptingServof+0x42>
	{
		servo.perform=false;  //repeat from the begin
     804:	10 92 0c 03 	sts	0x030C, r1
		imp = imp_duration;
     808:	70 93 ff 02 	sts	0x02FF, r23
     80c:	60 93 fe 02 	sts	0x02FE, r22
	}
	if(servo.repeat(imp))
     810:	80 91 fe 02 	lds	r24, 0x02FE
     814:	90 91 ff 02 	lds	r25, 0x02FF
	repeatingHandler();	
	~repeatingHandler();
		
	bool repeat (uint16_t period)
	{		
		if (period==0)
     818:	00 97       	sbiw	r24, 0x00	; 0
     81a:	b1 f0       	breq	.+44     	; 0x848 <_Z17InterruptingServof+0x7a>
		{
			return false;  // out if period =0; don't repeat at all	
		}		
		if (perform==false)	
     81c:	20 91 0c 03 	lds	r18, 0x030C
     820:	21 11       	cpse	r18, r1
     822:	07 c0       	rjmp	.+14     	; 0x832 <_Z17InterruptingServof+0x64>
		{
			perform = true;		
     824:	e8 e0       	ldi	r30, 0x08	; 8
     826:	f3 e0       	ldi	r31, 0x03	; 3
     828:	81 e0       	ldi	r24, 0x01	; 1
     82a:	84 83       	std	Z+4, r24	; 0x04
			ticks = 0;
     82c:	13 82       	std	Z+3, r1	; 0x03
     82e:	12 82       	std	Z+2, r1	; 0x02
     830:	0b c0       	rjmp	.+22     	; 0x848 <_Z17InterruptingServof+0x7a>
			return false;								
		}		
		
		if (perform==true)
		{
			if (ticks>=period)
     832:	20 91 0a 03 	lds	r18, 0x030A
     836:	30 91 0b 03 	lds	r19, 0x030B
     83a:	28 17       	cp	r18, r24
     83c:	39 07       	cpc	r19, r25
     83e:	20 f0       	brcs	.+8      	; 0x848 <_Z17InterruptingServof+0x7a>
			{
				perform = false;
     840:	10 92 0c 03 	sts	0x030C, r1
	{
		StopServo();
     844:	0e 94 5f 03 	call	0x6be	; 0x6be <_Z9StopServov>
	}
}
     848:	ff 90       	pop	r15
     84a:	ef 90       	pop	r14
     84c:	df 90       	pop	r13
     84e:	cf 90       	pop	r12
     850:	08 95       	ret

00000852 <_Z11servoSummerPjPf>:

void servoSummer(uint16_t*pid_period_ptr, float* imp_servo_ptr )
{
     852:	cf 93       	push	r28
     854:	df 93       	push	r29
     856:	eb 01       	movw	r28, r22
	
	*pid_period_ptr=0;  //turn off pid calculations
     858:	fc 01       	movw	r30, r24
     85a:	11 82       	std	Z+1, r1	; 0x01
     85c:	10 82       	st	Z, r1
	
	if (  (our_time[DAYOFWEEK]==2 || our_time[DAYOFWEEK]==5)
     85e:	80 91 f9 02 	lds	r24, 0x02F9
     862:	90 91 fa 02 	lds	r25, 0x02FA
     866:	a0 91 fb 02 	lds	r26, 0x02FB
     86a:	b0 91 fc 02 	lds	r27, 0x02FC
     86e:	82 30       	cpi	r24, 0x02	; 2
     870:	91 05       	cpc	r25, r1
     872:	a1 05       	cpc	r26, r1
     874:	b1 05       	cpc	r27, r1
     876:	21 f0       	breq	.+8      	; 0x880 <_Z11servoSummerPjPf+0x2e>
     878:	05 97       	sbiw	r24, 0x05	; 5
     87a:	a1 05       	cpc	r26, r1
     87c:	b1 05       	cpc	r27, r1
     87e:	59 f5       	brne	.+86     	; 0x8d6 <_Z11servoSummerPjPf+0x84>
	              &&
     880:	80 91 8d 02 	lds	r24, 0x028D
     884:	90 91 8e 02 	lds	r25, 0x028E
     888:	a0 91 8f 02 	lds	r26, 0x028F
     88c:	b0 91 90 02 	lds	r27, 0x0290
     890:	08 97       	sbiw	r24, 0x08	; 8
     892:	a1 05       	cpc	r26, r1
     894:	b1 05       	cpc	r27, r1
     896:	f9 f4       	brne	.+62     	; 0x8d6 <_Z11servoSummerPjPf+0x84>
	      our_time[HOURE]==8 
		          &&
     898:	80 91 89 02 	lds	r24, 0x0289
     89c:	90 91 8a 02 	lds	r25, 0x028A
     8a0:	a0 91 8b 02 	lds	r26, 0x028B
     8a4:	b0 91 8c 02 	lds	r27, 0x028C
     8a8:	0a 97       	sbiw	r24, 0x0a	; 10
     8aa:	a1 05       	cpc	r26, r1
     8ac:	b1 05       	cpc	r27, r1
     8ae:	9c f4       	brge	.+38     	; 0x8d6 <_Z11servoSummerPjPf+0x84>
	      (our_time[MINUTES]<10)  )	
	{
		*imp_servo_ptr = ServoControl(100,servo_period_G);  
     8b0:	20 91 9a 00 	lds	r18, 0x009A
     8b4:	30 91 9b 00 	lds	r19, 0x009B
     8b8:	40 91 9c 00 	lds	r20, 0x009C
     8bc:	50 91 9d 00 	lds	r21, 0x009D
     8c0:	60 e0       	ldi	r22, 0x00	; 0
     8c2:	70 e0       	ldi	r23, 0x00	; 0
     8c4:	88 ec       	ldi	r24, 0xC8	; 200
     8c6:	92 e4       	ldi	r25, 0x42	; 66
     8c8:	0e 94 68 03 	call	0x6d0	; 0x6d0 <_Z12ServoControlff>
     8cc:	68 83       	st	Y, r22
     8ce:	79 83       	std	Y+1, r23	; 0x01
     8d0:	8a 83       	std	Y+2, r24	; 0x02
     8d2:	9b 83       	std	Y+3, r25	; 0x03
     8d4:	12 c0       	rjmp	.+36     	; 0x8fa <_Z11servoSummerPjPf+0xa8>
	}	 //open for 10minutes
	else
	{
		*imp_servo_ptr = ServoControl(-100,servo_period_G);   //signal to servo to close		
     8d6:	20 91 9a 00 	lds	r18, 0x009A
     8da:	30 91 9b 00 	lds	r19, 0x009B
     8de:	40 91 9c 00 	lds	r20, 0x009C
     8e2:	50 91 9d 00 	lds	r21, 0x009D
     8e6:	60 e0       	ldi	r22, 0x00	; 0
     8e8:	70 e0       	ldi	r23, 0x00	; 0
     8ea:	88 ec       	ldi	r24, 0xC8	; 200
     8ec:	92 ec       	ldi	r25, 0xC2	; 194
     8ee:	0e 94 68 03 	call	0x6d0	; 0x6d0 <_Z12ServoControlff>
     8f2:	68 83       	st	Y, r22
     8f4:	79 83       	std	Y+1, r23	; 0x01
     8f6:	8a 83       	std	Y+2, r24	; 0x02
     8f8:	9b 83       	std	Y+3, r25	; 0x03
	}
	
}
     8fa:	df 91       	pop	r29
     8fc:	cf 91       	pop	r28
     8fe:	08 95       	ret

00000900 <_Z12seasonSummerv>:

void seasonSummer (void)
{
	servoSummer(&PIDperiod_G, &impulse_for_servo_G);	
     900:	64 eb       	ldi	r22, 0xB4	; 180
     902:	73 e0       	ldi	r23, 0x03	; 3
     904:	88 e9       	ldi	r24, 0x98	; 152
     906:	90 e0       	ldi	r25, 0x00	; 0
     908:	0e 94 29 04 	call	0x852	; 0x852 <_Z11servoSummerPjPf>
     90c:	08 95       	ret

0000090e <_Z17checkSummerWinterff>:
	*pid_period_ptr = PID_PERIOD;
}

void checkSummerWinter(float t_out, float t_change_season)
{
	if (t_out>=t_change_season) seasonSummer();
     90e:	0e 94 59 19 	call	0x32b2	; 0x32b2 <__gesf2>
     912:	88 23       	and	r24, r24
     914:	1c f0       	brlt	.+6      	; 0x91c <_Z17checkSummerWinterff+0xe>
     916:	0e 94 80 04 	call	0x900	; 0x900 <_Z12seasonSummerv>
     91a:	08 95       	ret
	servoSummer(&PIDperiod_G, &impulse_for_servo_G);	
}

void seasonWinter(uint16_t *pid_period_ptr)
{
	*pid_period_ptr = PID_PERIOD;
     91c:	88 eb       	ldi	r24, 0xB8	; 184
     91e:	9b e0       	ldi	r25, 0x0B	; 11
     920:	90 93 99 00 	sts	0x0099, r25
     924:	80 93 98 00 	sts	0x0098, r24
     928:	08 95       	ret

0000092a <_GLOBAL__sub_I_heating_curve_G>:
void checkSummerWinter(float t_out, float t_change_season)
{
	if (t_out>=t_change_season) seasonSummer();
	else seasonWinter(&PIDperiod_G);
	
     92a:	8f 92       	push	r8
     92c:	9f 92       	push	r9
     92e:	af 92       	push	r10
     930:	bf 92       	push	r11
     932:	cf 92       	push	r12
     934:	df 92       	push	r13
     936:	ef 92       	push	r14
     938:	ff 92       	push	r15
     93a:	0f 93       	push	r16
     93c:	1f 93       	push	r17

program_t day_prog [7] ={PROG7,PROG2,PROG3,PROG4,PROG1,PROG6,PROG7}; //every day has P1 program in initial conditions

//   on/off for komf periods in minutes
//       
Prog P1 ( 0, 24*60, 0, 0, 0, 0);
     93e:	1f 92       	push	r1
     940:	1f 92       	push	r1
     942:	1f 92       	push	r1
     944:	1f 92       	push	r1
     946:	1f 92       	push	r1
     948:	1f 92       	push	r1
     94a:	1f 92       	push	r1
     94c:	1f 92       	push	r1
     94e:	81 2c       	mov	r8, r1
     950:	91 2c       	mov	r9, r1
     952:	54 01       	movw	r10, r8
     954:	c1 2c       	mov	r12, r1
     956:	d1 2c       	mov	r13, r1
     958:	76 01       	movw	r14, r12
     95a:	00 ea       	ldi	r16, 0xA0	; 160
     95c:	15 e0       	ldi	r17, 0x05	; 5
     95e:	20 e0       	ldi	r18, 0x00	; 0
     960:	30 e0       	ldi	r19, 0x00	; 0
     962:	40 e0       	ldi	r20, 0x00	; 0
     964:	50 e0       	ldi	r21, 0x00	; 0
     966:	ba 01       	movw	r22, r20
     968:	8d e6       	ldi	r24, 0x6D	; 109
     96a:	93 e0       	ldi	r25, 0x03	; 3
     96c:	0e 94 4a 09 	call	0x1294	; 0x1294 <_ZN4ProgC1Ellllll>
Prog P2 (0, 0, 0, 0, 0, 0);
     970:	1f 92       	push	r1
     972:	1f 92       	push	r1
     974:	1f 92       	push	r1
     976:	1f 92       	push	r1
     978:	1f 92       	push	r1
     97a:	1f 92       	push	r1
     97c:	1f 92       	push	r1
     97e:	1f 92       	push	r1
     980:	00 e0       	ldi	r16, 0x00	; 0
     982:	10 e0       	ldi	r17, 0x00	; 0
     984:	98 01       	movw	r18, r16
     986:	40 e0       	ldi	r20, 0x00	; 0
     988:	50 e0       	ldi	r21, 0x00	; 0
     98a:	ba 01       	movw	r22, r20
     98c:	81 e6       	ldi	r24, 0x61	; 97
     98e:	93 e0       	ldi	r25, 0x03	; 3
     990:	0e 94 4a 09 	call	0x1294	; 0x1294 <_ZN4ProgC1Ellllll>
Prog P3 (7*60, 22*60, 0, 0, 0, 0);
     994:	1f 92       	push	r1
     996:	1f 92       	push	r1
     998:	1f 92       	push	r1
     99a:	1f 92       	push	r1
     99c:	1f 92       	push	r1
     99e:	1f 92       	push	r1
     9a0:	1f 92       	push	r1
     9a2:	1f 92       	push	r1
     9a4:	08 e2       	ldi	r16, 0x28	; 40
     9a6:	15 e0       	ldi	r17, 0x05	; 5
     9a8:	20 e0       	ldi	r18, 0x00	; 0
     9aa:	30 e0       	ldi	r19, 0x00	; 0
     9ac:	44 ea       	ldi	r20, 0xA4	; 164
     9ae:	51 e0       	ldi	r21, 0x01	; 1
     9b0:	60 e0       	ldi	r22, 0x00	; 0
     9b2:	70 e0       	ldi	r23, 0x00	; 0
     9b4:	85 e5       	ldi	r24, 0x55	; 85
     9b6:	93 e0       	ldi	r25, 0x03	; 3
     9b8:	0e 94 4a 09 	call	0x1294	; 0x1294 <_ZN4ProgC1Ellllll>
Prog P4 (7*60, 8*60, 17*60, 22*60, 0, 0);  
     9bc:	1f 92       	push	r1
     9be:	1f 92       	push	r1
     9c0:	1f 92       	push	r1
     9c2:	1f 92       	push	r1
     9c4:	1f 92       	push	r1
     9c6:	1f 92       	push	r1
     9c8:	1f 92       	push	r1
     9ca:	1f 92       	push	r1
     9cc:	0f 2e       	mov	r0, r31
     9ce:	f8 e2       	ldi	r31, 0x28	; 40
     9d0:	8f 2e       	mov	r8, r31
     9d2:	f5 e0       	ldi	r31, 0x05	; 5
     9d4:	9f 2e       	mov	r9, r31
     9d6:	a1 2c       	mov	r10, r1
     9d8:	b1 2c       	mov	r11, r1
     9da:	f0 2d       	mov	r31, r0
     9dc:	0f 2e       	mov	r0, r31
     9de:	fc ef       	ldi	r31, 0xFC	; 252
     9e0:	cf 2e       	mov	r12, r31
     9e2:	f3 e0       	ldi	r31, 0x03	; 3
     9e4:	df 2e       	mov	r13, r31
     9e6:	e1 2c       	mov	r14, r1
     9e8:	f1 2c       	mov	r15, r1
     9ea:	f0 2d       	mov	r31, r0
     9ec:	00 ee       	ldi	r16, 0xE0	; 224
     9ee:	11 e0       	ldi	r17, 0x01	; 1
     9f0:	20 e0       	ldi	r18, 0x00	; 0
     9f2:	30 e0       	ldi	r19, 0x00	; 0
     9f4:	44 ea       	ldi	r20, 0xA4	; 164
     9f6:	51 e0       	ldi	r21, 0x01	; 1
     9f8:	60 e0       	ldi	r22, 0x00	; 0
     9fa:	70 e0       	ldi	r23, 0x00	; 0
     9fc:	89 e4       	ldi	r24, 0x49	; 73
     9fe:	93 e0       	ldi	r25, 0x03	; 3
     a00:	0e 94 4a 09 	call	0x1294	; 0x1294 <_ZN4ProgC1Ellllll>
Prog P5 (7*60, 8*60, 17*60, 22*60, 0, 0);
     a04:	8d b7       	in	r24, 0x3d	; 61
     a06:	9e b7       	in	r25, 0x3e	; 62
     a08:	80 96       	adiw	r24, 0x20	; 32
     a0a:	0f b6       	in	r0, 0x3f	; 63
     a0c:	f8 94       	cli
     a0e:	9e bf       	out	0x3e, r25	; 62
     a10:	0f be       	out	0x3f, r0	; 63
     a12:	8d bf       	out	0x3d, r24	; 61
     a14:	1f 92       	push	r1
     a16:	1f 92       	push	r1
     a18:	1f 92       	push	r1
     a1a:	1f 92       	push	r1
     a1c:	1f 92       	push	r1
     a1e:	1f 92       	push	r1
     a20:	1f 92       	push	r1
     a22:	1f 92       	push	r1
     a24:	00 ee       	ldi	r16, 0xE0	; 224
     a26:	11 e0       	ldi	r17, 0x01	; 1
     a28:	20 e0       	ldi	r18, 0x00	; 0
     a2a:	30 e0       	ldi	r19, 0x00	; 0
     a2c:	44 ea       	ldi	r20, 0xA4	; 164
     a2e:	51 e0       	ldi	r21, 0x01	; 1
     a30:	60 e0       	ldi	r22, 0x00	; 0
     a32:	70 e0       	ldi	r23, 0x00	; 0
     a34:	8d e3       	ldi	r24, 0x3D	; 61
     a36:	93 e0       	ldi	r25, 0x03	; 3
     a38:	0e 94 4a 09 	call	0x1294	; 0x1294 <_ZN4ProgC1Ellllll>
Prog P6 (7*60, 8*60, 12*60, 13*60, 17*60, 22*60);
     a3c:	1f 92       	push	r1
     a3e:	1f 92       	push	r1
     a40:	85 e0       	ldi	r24, 0x05	; 5
     a42:	8f 93       	push	r24
     a44:	88 e2       	ldi	r24, 0x28	; 40
     a46:	8f 93       	push	r24
     a48:	1f 92       	push	r1
     a4a:	1f 92       	push	r1
     a4c:	83 e0       	ldi	r24, 0x03	; 3
     a4e:	8f 93       	push	r24
     a50:	8c ef       	ldi	r24, 0xFC	; 252
     a52:	8f 93       	push	r24
     a54:	0f 2e       	mov	r0, r31
     a56:	fc e0       	ldi	r31, 0x0C	; 12
     a58:	8f 2e       	mov	r8, r31
     a5a:	f3 e0       	ldi	r31, 0x03	; 3
     a5c:	9f 2e       	mov	r9, r31
     a5e:	a1 2c       	mov	r10, r1
     a60:	b1 2c       	mov	r11, r1
     a62:	f0 2d       	mov	r31, r0
     a64:	0f 2e       	mov	r0, r31
     a66:	f0 ed       	ldi	r31, 0xD0	; 208
     a68:	cf 2e       	mov	r12, r31
     a6a:	f2 e0       	ldi	r31, 0x02	; 2
     a6c:	df 2e       	mov	r13, r31
     a6e:	e1 2c       	mov	r14, r1
     a70:	f1 2c       	mov	r15, r1
     a72:	f0 2d       	mov	r31, r0
     a74:	00 ee       	ldi	r16, 0xE0	; 224
     a76:	11 e0       	ldi	r17, 0x01	; 1
     a78:	20 e0       	ldi	r18, 0x00	; 0
     a7a:	30 e0       	ldi	r19, 0x00	; 0
     a7c:	44 ea       	ldi	r20, 0xA4	; 164
     a7e:	51 e0       	ldi	r21, 0x01	; 1
     a80:	60 e0       	ldi	r22, 0x00	; 0
     a82:	70 e0       	ldi	r23, 0x00	; 0
     a84:	81 e3       	ldi	r24, 0x31	; 49
     a86:	93 e0       	ldi	r25, 0x03	; 3
     a88:	0e 94 4a 09 	call	0x1294	; 0x1294 <_ZN4ProgC1Ellllll>
Prog P7 (0, 24*60, 0, 0, 0, 0);
     a8c:	1f 92       	push	r1
     a8e:	1f 92       	push	r1
     a90:	1f 92       	push	r1
     a92:	1f 92       	push	r1
     a94:	1f 92       	push	r1
     a96:	1f 92       	push	r1
     a98:	1f 92       	push	r1
     a9a:	1f 92       	push	r1
     a9c:	81 2c       	mov	r8, r1
     a9e:	91 2c       	mov	r9, r1
     aa0:	54 01       	movw	r10, r8
     aa2:	c1 2c       	mov	r12, r1
     aa4:	d1 2c       	mov	r13, r1
     aa6:	76 01       	movw	r14, r12
     aa8:	00 ea       	ldi	r16, 0xA0	; 160
     aaa:	15 e0       	ldi	r17, 0x05	; 5
     aac:	20 e0       	ldi	r18, 0x00	; 0
     aae:	30 e0       	ldi	r19, 0x00	; 0
     ab0:	40 e0       	ldi	r20, 0x00	; 0
     ab2:	50 e0       	ldi	r21, 0x00	; 0
     ab4:	ba 01       	movw	r22, r20
     ab6:	85 e2       	ldi	r24, 0x25	; 37
     ab8:	93 e0       	ldi	r25, 0x03	; 3
     aba:	0e 94 4a 09 	call	0x1294	; 0x1294 <_ZN4ProgC1Ellllll>
Prog P8 (0, 24*60, 0, 0, 0, 0);
     abe:	1f 92       	push	r1
     ac0:	1f 92       	push	r1
     ac2:	1f 92       	push	r1
     ac4:	1f 92       	push	r1
     ac6:	1f 92       	push	r1
     ac8:	1f 92       	push	r1
     aca:	1f 92       	push	r1
     acc:	1f 92       	push	r1
     ace:	00 ea       	ldi	r16, 0xA0	; 160
     ad0:	15 e0       	ldi	r17, 0x05	; 5
     ad2:	20 e0       	ldi	r18, 0x00	; 0
     ad4:	30 e0       	ldi	r19, 0x00	; 0
     ad6:	40 e0       	ldi	r20, 0x00	; 0
     ad8:	50 e0       	ldi	r21, 0x00	; 0
     ada:	ba 01       	movw	r22, r20
     adc:	89 e1       	ldi	r24, 0x19	; 25
     ade:	93 e0       	ldi	r25, 0x03	; 3
     ae0:	0e 94 4a 09 	call	0x1294	; 0x1294 <_ZN4ProgC1Ellllll>
Prog P9 (0, 24*60, 0, 0, 0, 0);
     ae4:	8d b7       	in	r24, 0x3d	; 61
     ae6:	9e b7       	in	r25, 0x3e	; 62
     ae8:	80 96       	adiw	r24, 0x20	; 32
     aea:	0f b6       	in	r0, 0x3f	; 63
     aec:	f8 94       	cli
     aee:	9e bf       	out	0x3e, r25	; 62
     af0:	0f be       	out	0x3f, r0	; 63
     af2:	8d bf       	out	0x3d, r24	; 61
     af4:	1f 92       	push	r1
     af6:	1f 92       	push	r1
     af8:	1f 92       	push	r1
     afa:	1f 92       	push	r1
     afc:	1f 92       	push	r1
     afe:	1f 92       	push	r1
     b00:	1f 92       	push	r1
     b02:	1f 92       	push	r1
     b04:	00 ea       	ldi	r16, 0xA0	; 160
     b06:	15 e0       	ldi	r17, 0x05	; 5
     b08:	20 e0       	ldi	r18, 0x00	; 0
     b0a:	30 e0       	ldi	r19, 0x00	; 0
     b0c:	40 e0       	ldi	r20, 0x00	; 0
     b0e:	50 e0       	ldi	r21, 0x00	; 0
     b10:	ba 01       	movw	r22, r20
     b12:	8d e0       	ldi	r24, 0x0D	; 13
     b14:	93 e0       	ldi	r25, 0x03	; 3
     b16:	0e 94 4a 09 	call	0x1294	; 0x1294 <_ZN4ProgC1Ellllll>
			return 0;  //тривалість імпульсу = 0
		}
	}
}

repeatingHandler servo;
     b1a:	88 e0       	ldi	r24, 0x08	; 8
     b1c:	93 e0       	ldi	r25, 0x03	; 3
     b1e:	0e 94 09 0a 	call	0x1412	; 0x1412 <_ZN16repeatingHandlerC1Ev>
     b22:	8d b7       	in	r24, 0x3d	; 61
     b24:	9e b7       	in	r25, 0x3e	; 62
     b26:	08 96       	adiw	r24, 0x08	; 8
     b28:	0f b6       	in	r0, 0x3f	; 63
     b2a:	f8 94       	cli
     b2c:	9e bf       	out	0x3e, r25	; 62
     b2e:	0f be       	out	0x3f, r0	; 63
     b30:	8d bf       	out	0x3d, r24	; 61
void checkSummerWinter(float t_out, float t_change_season)
{
	if (t_out>=t_change_season) seasonSummer();
	else seasonWinter(&PIDperiod_G);
	
     b32:	1f 91       	pop	r17
     b34:	0f 91       	pop	r16
     b36:	ff 90       	pop	r15
     b38:	ef 90       	pop	r14
     b3a:	df 90       	pop	r13
     b3c:	cf 90       	pop	r12
     b3e:	bf 90       	pop	r11
     b40:	af 90       	pop	r10
     b42:	9f 90       	pop	r9
     b44:	8f 90       	pop	r8
     b46:	08 95       	ret

00000b48 <_GLOBAL__sub_D_heating_curve_G>:
			return 0;  //тривалість імпульсу = 0
		}
	}
}

repeatingHandler servo;
     b48:	88 e0       	ldi	r24, 0x08	; 8
     b4a:	93 e0       	ldi	r25, 0x03	; 3
     b4c:	0e 94 10 0a 	call	0x1420	; 0x1420 <_ZN16repeatingHandlerD1Ev>
Prog P4 (7*60, 8*60, 17*60, 22*60, 0, 0);  
Prog P5 (7*60, 8*60, 17*60, 22*60, 0, 0);
Prog P6 (7*60, 8*60, 12*60, 13*60, 17*60, 22*60);
Prog P7 (0, 24*60, 0, 0, 0, 0);
Prog P8 (0, 24*60, 0, 0, 0, 0);
Prog P9 (0, 24*60, 0, 0, 0, 0);
     b50:	8d e0       	ldi	r24, 0x0D	; 13
     b52:	93 e0       	ldi	r25, 0x03	; 3
     b54:	0e 94 76 09 	call	0x12ec	; 0x12ec <_ZN4ProgD1Ev>
Prog P3 (7*60, 22*60, 0, 0, 0, 0);
Prog P4 (7*60, 8*60, 17*60, 22*60, 0, 0);  
Prog P5 (7*60, 8*60, 17*60, 22*60, 0, 0);
Prog P6 (7*60, 8*60, 12*60, 13*60, 17*60, 22*60);
Prog P7 (0, 24*60, 0, 0, 0, 0);
Prog P8 (0, 24*60, 0, 0, 0, 0);
     b58:	89 e1       	ldi	r24, 0x19	; 25
     b5a:	93 e0       	ldi	r25, 0x03	; 3
     b5c:	0e 94 76 09 	call	0x12ec	; 0x12ec <_ZN4ProgD1Ev>
Prog P2 (0, 0, 0, 0, 0, 0);
Prog P3 (7*60, 22*60, 0, 0, 0, 0);
Prog P4 (7*60, 8*60, 17*60, 22*60, 0, 0);  
Prog P5 (7*60, 8*60, 17*60, 22*60, 0, 0);
Prog P6 (7*60, 8*60, 12*60, 13*60, 17*60, 22*60);
Prog P7 (0, 24*60, 0, 0, 0, 0);
     b60:	85 e2       	ldi	r24, 0x25	; 37
     b62:	93 e0       	ldi	r25, 0x03	; 3
     b64:	0e 94 76 09 	call	0x12ec	; 0x12ec <_ZN4ProgD1Ev>
Prog P1 ( 0, 24*60, 0, 0, 0, 0);
Prog P2 (0, 0, 0, 0, 0, 0);
Prog P3 (7*60, 22*60, 0, 0, 0, 0);
Prog P4 (7*60, 8*60, 17*60, 22*60, 0, 0);  
Prog P5 (7*60, 8*60, 17*60, 22*60, 0, 0);
Prog P6 (7*60, 8*60, 12*60, 13*60, 17*60, 22*60);
     b68:	81 e3       	ldi	r24, 0x31	; 49
     b6a:	93 e0       	ldi	r25, 0x03	; 3
     b6c:	0e 94 76 09 	call	0x12ec	; 0x12ec <_ZN4ProgD1Ev>
//       
Prog P1 ( 0, 24*60, 0, 0, 0, 0);
Prog P2 (0, 0, 0, 0, 0, 0);
Prog P3 (7*60, 22*60, 0, 0, 0, 0);
Prog P4 (7*60, 8*60, 17*60, 22*60, 0, 0);  
Prog P5 (7*60, 8*60, 17*60, 22*60, 0, 0);
     b70:	8d e3       	ldi	r24, 0x3D	; 61
     b72:	93 e0       	ldi	r25, 0x03	; 3
     b74:	0e 94 76 09 	call	0x12ec	; 0x12ec <_ZN4ProgD1Ev>
//   on/off for komf periods in minutes
//       
Prog P1 ( 0, 24*60, 0, 0, 0, 0);
Prog P2 (0, 0, 0, 0, 0, 0);
Prog P3 (7*60, 22*60, 0, 0, 0, 0);
Prog P4 (7*60, 8*60, 17*60, 22*60, 0, 0);  
     b78:	89 e4       	ldi	r24, 0x49	; 73
     b7a:	93 e0       	ldi	r25, 0x03	; 3
     b7c:	0e 94 76 09 	call	0x12ec	; 0x12ec <_ZN4ProgD1Ev>

//   on/off for komf periods in minutes
//       
Prog P1 ( 0, 24*60, 0, 0, 0, 0);
Prog P2 (0, 0, 0, 0, 0, 0);
Prog P3 (7*60, 22*60, 0, 0, 0, 0);
     b80:	85 e5       	ldi	r24, 0x55	; 85
     b82:	93 e0       	ldi	r25, 0x03	; 3
     b84:	0e 94 76 09 	call	0x12ec	; 0x12ec <_ZN4ProgD1Ev>
program_t day_prog [7] ={PROG7,PROG2,PROG3,PROG4,PROG1,PROG6,PROG7}; //every day has P1 program in initial conditions

//   on/off for komf periods in minutes
//       
Prog P1 ( 0, 24*60, 0, 0, 0, 0);
Prog P2 (0, 0, 0, 0, 0, 0);
     b88:	81 e6       	ldi	r24, 0x61	; 97
     b8a:	93 e0       	ldi	r25, 0x03	; 3
     b8c:	0e 94 76 09 	call	0x12ec	; 0x12ec <_ZN4ProgD1Ev>

program_t day_prog [7] ={PROG7,PROG2,PROG3,PROG4,PROG1,PROG6,PROG7}; //every day has P1 program in initial conditions

//   on/off for komf periods in minutes
//       
Prog P1 ( 0, 24*60, 0, 0, 0, 0);
     b90:	8d e6       	ldi	r24, 0x6D	; 109
     b92:	93 e0       	ldi	r25, 0x03	; 3
     b94:	0e 94 76 09 	call	0x12ec	; 0x12ec <_ZN4ProgD1Ev>
     b98:	08 95       	ret

00000b9a <_Z8IND_Initv>:

//************************************************************************
void IND_Init(void)
{
  unsigned char i;
  PORT_IND = 0xff;
     b9a:	8f ef       	ldi	r24, 0xFF	; 255
     b9c:	88 bb       	out	0x18, r24	; 24
  DDR_IND = 0xff;
     b9e:	87 bb       	out	0x17, r24	; 23
  
  LightOutAll();
     ba0:	85 b3       	in	r24, 0x15	; 21
     ba2:	80 7f       	andi	r24, 0xF0	; 240
     ba4:	85 bb       	out	0x15, r24	; 21
  DDR_TR |= (1<<NUM1)|(1<<NUM2)|(1<<NUM3)|(1<<NUM4);
     ba6:	84 b3       	in	r24, 0x14	; 20
     ba8:	8f 60       	ori	r24, 0x0F	; 15
     baa:	84 bb       	out	0x14, r24	; 20

  for(i = 0; i < AMOUNT_NUM; i++) buf[i] = 0;
     bac:	e6 e8       	ldi	r30, 0x86	; 134
     bae:	f3 e0       	ldi	r31, 0x03	; 3
     bb0:	10 82       	st	Z, r1
     bb2:	11 82       	std	Z+1, r1	; 0x01
     bb4:	12 82       	std	Z+2, r1	; 0x02
     bb6:	13 82       	std	Z+3, r1	; 0x03
     bb8:	08 95       	ret

00000bba <_Z16IND_OutputSymbolPKch>:
}

void IND_OutputSymbol (const char* symbol, unsigned char pos)
{	
		switch (symbol[0])
     bba:	dc 01       	movw	r26, r24
     bbc:	ec 91       	ld	r30, X
     bbe:	8e 2f       	mov	r24, r30
     bc0:	90 e0       	ldi	r25, 0x00	; 0
     bc2:	fc 01       	movw	r30, r24
     bc4:	ba 97       	sbiw	r30, 0x2a	; 42
     bc6:	e0 35       	cpi	r30, 0x50	; 80
     bc8:	f1 05       	cpc	r31, r1
     bca:	08 f0       	brcs	.+2      	; 0xbce <_Z16IND_OutputSymbolPKch+0x14>
     bcc:	dc c0       	rjmp	.+440    	; 0xd86 <_Z16IND_OutputSymbolPKch+0x1cc>
     bce:	e5 5c       	subi	r30, 0xC5	; 197
     bd0:	ff 4f       	sbci	r31, 0xFF	; 255
     bd2:	0c 94 cb 19 	jmp	0x3396	; 0x3396 <__tablejump2__>
		{
			case 'o':
			buf[pos-1] = number[CHARACTER_o];
     bd6:	e6 2f       	mov	r30, r22
     bd8:	f0 e0       	ldi	r31, 0x00	; 0
     bda:	80 91 85 00 	lds	r24, 0x0085
     bde:	eb 57       	subi	r30, 0x7B	; 123
     be0:	fc 4f       	sbci	r31, 0xFC	; 252
     be2:	80 83       	st	Z, r24
			break;
     be4:	08 95       	ret
			case 'p':
			buf[pos-1] = number[CHARACTER_p];
     be6:	e6 2f       	mov	r30, r22
     be8:	f0 e0       	ldi	r31, 0x00	; 0
     bea:	80 91 86 00 	lds	r24, 0x0086
     bee:	eb 57       	subi	r30, 0x7B	; 123
     bf0:	fc 4f       	sbci	r31, 0xFC	; 252
     bf2:	80 83       	st	Z, r24
			break;
     bf4:	08 95       	ret
			case 'n':
			buf[pos-1] = number[CHARACTER_n];
     bf6:	e6 2f       	mov	r30, r22
     bf8:	f0 e0       	ldi	r31, 0x00	; 0
     bfa:	80 91 87 00 	lds	r24, 0x0087
     bfe:	eb 57       	subi	r30, 0x7B	; 123
     c00:	fc 4f       	sbci	r31, 0xFC	; 252
     c02:	80 83       	st	Z, r24
			break;
     c04:	08 95       	ret
			case 'd':
			buf[pos-1] = number[CHARACTER_d];
     c06:	e6 2f       	mov	r30, r22
     c08:	f0 e0       	ldi	r31, 0x00	; 0
     c0a:	80 91 88 00 	lds	r24, 0x0088
     c0e:	eb 57       	subi	r30, 0x7B	; 123
     c10:	fc 4f       	sbci	r31, 0xFC	; 252
     c12:	80 83       	st	Z, r24
			break;
     c14:	08 95       	ret
			case 'y':
			buf[pos-1] = number[CHARACTER_y];
     c16:	e6 2f       	mov	r30, r22
     c18:	f0 e0       	ldi	r31, 0x00	; 0
     c1a:	80 91 89 00 	lds	r24, 0x0089
     c1e:	eb 57       	subi	r30, 0x7B	; 123
     c20:	fc 4f       	sbci	r31, 0xFC	; 252
     c22:	80 83       	st	Z, r24
			break;
     c24:	08 95       	ret
			case 't':
			buf[pos-1] = number[CHARACTER_t];
     c26:	e6 2f       	mov	r30, r22
     c28:	f0 e0       	ldi	r31, 0x00	; 0
     c2a:	80 91 8a 00 	lds	r24, 0x008A
     c2e:	eb 57       	subi	r30, 0x7B	; 123
     c30:	fc 4f       	sbci	r31, 0xFC	; 252
     c32:	80 83       	st	Z, r24
			break;
     c34:	08 95       	ret
			case 'e':
			buf[pos-1] = number[CHARACTER_e];
     c36:	e6 2f       	mov	r30, r22
     c38:	f0 e0       	ldi	r31, 0x00	; 0
     c3a:	80 91 8b 00 	lds	r24, 0x008B
     c3e:	eb 57       	subi	r30, 0x7B	; 123
     c40:	fc 4f       	sbci	r31, 0xFC	; 252
     c42:	80 83       	st	Z, r24
			break;
     c44:	08 95       	ret
			case 'r':
			buf[pos-1] = number[CHARACTER_r];
     c46:	e6 2f       	mov	r30, r22
     c48:	f0 e0       	ldi	r31, 0x00	; 0
     c4a:	80 91 8c 00 	lds	r24, 0x008C
     c4e:	eb 57       	subi	r30, 0x7B	; 123
     c50:	fc 4f       	sbci	r31, 0xFC	; 252
     c52:	80 83       	st	Z, r24
			break;
     c54:	08 95       	ret
			case 'l':
			buf[pos-1] = number[CHARACTER_l];
     c56:	e6 2f       	mov	r30, r22
     c58:	f0 e0       	ldi	r31, 0x00	; 0
     c5a:	80 91 8d 00 	lds	r24, 0x008D
     c5e:	eb 57       	subi	r30, 0x7B	; 123
     c60:	fc 4f       	sbci	r31, 0xFC	; 252
     c62:	80 83       	st	Z, r24
			break;
     c64:	08 95       	ret
			case 'i':
			buf[pos-1] = number[CHARACTER_i];
     c66:	e6 2f       	mov	r30, r22
     c68:	f0 e0       	ldi	r31, 0x00	; 0
     c6a:	80 91 8e 00 	lds	r24, 0x008E
     c6e:	eb 57       	subi	r30, 0x7B	; 123
     c70:	fc 4f       	sbci	r31, 0xFC	; 252
     c72:	80 83       	st	Z, r24
			break;
     c74:	08 95       	ret
			case 'a':
			buf[pos-1] = number[CHARACTER_a];
     c76:	e6 2f       	mov	r30, r22
     c78:	f0 e0       	ldi	r31, 0x00	; 0
     c7a:	80 91 90 00 	lds	r24, 0x0090
     c7e:	eb 57       	subi	r30, 0x7B	; 123
     c80:	fc 4f       	sbci	r31, 0xFC	; 252
     c82:	80 83       	st	Z, r24
			break;
     c84:	08 95       	ret
			case 'g':
			buf[pos-1] = number[CHARACTER_g];
     c86:	e6 2f       	mov	r30, r22
     c88:	f0 e0       	ldi	r31, 0x00	; 0
     c8a:	80 91 91 00 	lds	r24, 0x0091
     c8e:	eb 57       	subi	r30, 0x7B	; 123
     c90:	fc 4f       	sbci	r31, 0xFC	; 252
     c92:	80 83       	st	Z, r24
			break;
     c94:	08 95       	ret
			case 's':
			buf[pos-1] = number[CHARACTER_s];
     c96:	e6 2f       	mov	r30, r22
     c98:	f0 e0       	ldi	r31, 0x00	; 0
     c9a:	80 91 92 00 	lds	r24, 0x0092
     c9e:	eb 57       	subi	r30, 0x7B	; 123
     ca0:	fc 4f       	sbci	r31, 0xFC	; 252
     ca2:	80 83       	st	Z, r24
			break;
     ca4:	08 95       	ret
			case 'c':
			buf[pos-1] = number[CHARACTER_c];
     ca6:	e6 2f       	mov	r30, r22
     ca8:	f0 e0       	ldi	r31, 0x00	; 0
     caa:	80 91 93 00 	lds	r24, 0x0093
     cae:	eb 57       	subi	r30, 0x7B	; 123
     cb0:	fc 4f       	sbci	r31, 0xFC	; 252
     cb2:	80 83       	st	Z, r24
			break;
     cb4:	08 95       	ret
			case 'u':
			buf[pos-1] = number[CHARACTER_u];
     cb6:	e6 2f       	mov	r30, r22
     cb8:	f0 e0       	ldi	r31, 0x00	; 0
     cba:	80 91 94 00 	lds	r24, 0x0094
     cbe:	eb 57       	subi	r30, 0x7B	; 123
     cc0:	fc 4f       	sbci	r31, 0xFC	; 252
     cc2:	80 83       	st	Z, r24
			break;
     cc4:	08 95       	ret
			case '-':
			buf[pos-1] = number[CHARACTER_minus];
     cc6:	e6 2f       	mov	r30, r22
     cc8:	f0 e0       	ldi	r31, 0x00	; 0
     cca:	80 91 95 00 	lds	r24, 0x0095
     cce:	eb 57       	subi	r30, 0x7B	; 123
     cd0:	fc 4f       	sbci	r31, 0xFC	; 252
     cd2:	80 83       	st	Z, r24
			break;
     cd4:	08 95       	ret
			case '*':
			buf[pos-1] = number[CHARACTER_degree];
     cd6:	e6 2f       	mov	r30, r22
     cd8:	f0 e0       	ldi	r31, 0x00	; 0
     cda:	80 91 96 00 	lds	r24, 0x0096
     cde:	eb 57       	subi	r30, 0x7B	; 123
     ce0:	fc 4f       	sbci	r31, 0xFC	; 252
     ce2:	80 83       	st	Z, r24
			break;
     ce4:	08 95       	ret
			
			case '0':
			buf[pos-1] = number[0];
     ce6:	e6 2f       	mov	r30, r22
     ce8:	f0 e0       	ldi	r31, 0x00	; 0
     cea:	80 91 7b 00 	lds	r24, 0x007B
     cee:	eb 57       	subi	r30, 0x7B	; 123
     cf0:	fc 4f       	sbci	r31, 0xFC	; 252
     cf2:	80 83       	st	Z, r24
			break;
     cf4:	08 95       	ret
			case '1':
			buf[pos-1] = number[1];
     cf6:	e6 2f       	mov	r30, r22
     cf8:	f0 e0       	ldi	r31, 0x00	; 0
     cfa:	80 91 7c 00 	lds	r24, 0x007C
     cfe:	eb 57       	subi	r30, 0x7B	; 123
     d00:	fc 4f       	sbci	r31, 0xFC	; 252
     d02:	80 83       	st	Z, r24
			break;
     d04:	08 95       	ret
			case '2':
			buf[pos-1] = number[2];
     d06:	e6 2f       	mov	r30, r22
     d08:	f0 e0       	ldi	r31, 0x00	; 0
     d0a:	80 91 7d 00 	lds	r24, 0x007D
     d0e:	eb 57       	subi	r30, 0x7B	; 123
     d10:	fc 4f       	sbci	r31, 0xFC	; 252
     d12:	80 83       	st	Z, r24
			break;
     d14:	08 95       	ret
			case '3':
			buf[pos-1] = number[3];
     d16:	e6 2f       	mov	r30, r22
     d18:	f0 e0       	ldi	r31, 0x00	; 0
     d1a:	80 91 7e 00 	lds	r24, 0x007E
     d1e:	eb 57       	subi	r30, 0x7B	; 123
     d20:	fc 4f       	sbci	r31, 0xFC	; 252
     d22:	80 83       	st	Z, r24
			break;
     d24:	08 95       	ret
			case '4':
			buf[pos-1] = number[4];
     d26:	e6 2f       	mov	r30, r22
     d28:	f0 e0       	ldi	r31, 0x00	; 0
     d2a:	80 91 7f 00 	lds	r24, 0x007F
     d2e:	eb 57       	subi	r30, 0x7B	; 123
     d30:	fc 4f       	sbci	r31, 0xFC	; 252
     d32:	80 83       	st	Z, r24
			break;
     d34:	08 95       	ret
			case '5':
			buf[pos-1] = number[5];
     d36:	e6 2f       	mov	r30, r22
     d38:	f0 e0       	ldi	r31, 0x00	; 0
     d3a:	80 91 80 00 	lds	r24, 0x0080
     d3e:	eb 57       	subi	r30, 0x7B	; 123
     d40:	fc 4f       	sbci	r31, 0xFC	; 252
     d42:	80 83       	st	Z, r24
			break;
     d44:	08 95       	ret
			case '6':
			buf[pos-1] = number[6];
     d46:	e6 2f       	mov	r30, r22
     d48:	f0 e0       	ldi	r31, 0x00	; 0
     d4a:	80 91 81 00 	lds	r24, 0x0081
     d4e:	eb 57       	subi	r30, 0x7B	; 123
     d50:	fc 4f       	sbci	r31, 0xFC	; 252
     d52:	80 83       	st	Z, r24
			break;
     d54:	08 95       	ret
			case '7':
			buf[pos-1] = number[7];
     d56:	e6 2f       	mov	r30, r22
     d58:	f0 e0       	ldi	r31, 0x00	; 0
     d5a:	80 91 82 00 	lds	r24, 0x0082
     d5e:	eb 57       	subi	r30, 0x7B	; 123
     d60:	fc 4f       	sbci	r31, 0xFC	; 252
     d62:	80 83       	st	Z, r24
			break;
     d64:	08 95       	ret
			case '8':
			buf[pos-1] = number[8];
     d66:	e6 2f       	mov	r30, r22
     d68:	f0 e0       	ldi	r31, 0x00	; 0
     d6a:	80 91 83 00 	lds	r24, 0x0083
     d6e:	eb 57       	subi	r30, 0x7B	; 123
     d70:	fc 4f       	sbci	r31, 0xFC	; 252
     d72:	80 83       	st	Z, r24
			break;
     d74:	08 95       	ret
			case '9':
			buf[pos-1] = number[9];
     d76:	e6 2f       	mov	r30, r22
     d78:	f0 e0       	ldi	r31, 0x00	; 0
     d7a:	80 91 84 00 	lds	r24, 0x0084
     d7e:	eb 57       	subi	r30, 0x7B	; 123
     d80:	fc 4f       	sbci	r31, 0xFC	; 252
     d82:	80 83       	st	Z, r24
			break;
     d84:	08 95       	ret
			
			default:
			buf[pos-1] = number[CHARACTER_];
     d86:	e6 2f       	mov	r30, r22
     d88:	f0 e0       	ldi	r31, 0x00	; 0
     d8a:	80 91 8f 00 	lds	r24, 0x008F
     d8e:	eb 57       	subi	r30, 0x7B	; 123
     d90:	fc 4f       	sbci	r31, 0xFC	; 252
     d92:	80 83       	st	Z, r24
     d94:	08 95       	ret

00000d96 <_Z14IND_OutputTextPKch>:
		}
	
}

void IND_OutputText(const char* text, unsigned char comma)
{
     d96:	2f 92       	push	r2
     d98:	3f 92       	push	r3
     d9a:	4f 92       	push	r4
     d9c:	5f 92       	push	r5
     d9e:	6f 92       	push	r6
     da0:	7f 92       	push	r7
     da2:	8f 92       	push	r8
     da4:	9f 92       	push	r9
     da6:	af 92       	push	r10
     da8:	bf 92       	push	r11
     daa:	cf 92       	push	r12
     dac:	df 92       	push	r13
     dae:	ef 92       	push	r14
     db0:	ff 92       	push	r15
     db2:	0f 93       	push	r16
     db4:	1f 93       	push	r17
     db6:	cf 93       	push	r28
     db8:	df 93       	push	r29
     dba:	cd b7       	in	r28, 0x3d	; 61
     dbc:	de b7       	in	r29, 0x3e	; 62
     dbe:	61 97       	sbiw	r28, 0x11	; 17
     dc0:	0f b6       	in	r0, 0x3f	; 63
     dc2:	f8 94       	cli
     dc4:	de bf       	out	0x3e, r29	; 62
     dc6:	0f be       	out	0x3f, r0	; 63
     dc8:	cd bf       	out	0x3d, r28	; 61
	 unsigned char i;
	 unsigned char pre_buf[AMOUNT_NUM] = {0, 0, 0, 0}; // pre_buf we use becouse: updating display occures with big fraquancy - every 2ms and in the interupts - so it 
     dca:	19 82       	std	Y+1, r1	; 0x01
     dcc:	1a 82       	std	Y+2, r1	; 0x02
     dce:	1b 82       	std	Y+3, r1	; 0x03
     dd0:	1c 82       	std	Y+4, r1	; 0x04
	 for(i = 0; i < AMOUNT_NUM; i++)  // 
	 {
		 switch (text[i])
		 {
			 case 'o':
			 pre_buf[AMOUNT_NUM-1-i] = number[CHARACTER_o];
     dd2:	eb e7       	ldi	r30, 0x7B	; 123
     dd4:	f0 e0       	ldi	r31, 0x00	; 0
     dd6:	22 84       	ldd	r2, Z+10	; 0x0a
			 break;
			 case 'p':
			 pre_buf[AMOUNT_NUM-1-i] = number[CHARACTER_p];
     dd8:	33 84       	ldd	r3, Z+11	; 0x0b
			 break;
			 case 'n':
			 pre_buf[AMOUNT_NUM-1-i] = number[CHARACTER_n];
     dda:	84 84       	ldd	r8, Z+12	; 0x0c
			 break;
			 case 'd':
			 pre_buf[AMOUNT_NUM-1-i] = number[CHARACTER_d];
     ddc:	95 84       	ldd	r9, Z+13	; 0x0d
			 break;
			 case 'y':
			 pre_buf[AMOUNT_NUM-1-i] = number[CHARACTER_y];
     dde:	a6 84       	ldd	r10, Z+14	; 0x0e
			 break;
			 case 't':
			 pre_buf[AMOUNT_NUM-1-i] = number[CHARACTER_t];
     de0:	b7 84       	ldd	r11, Z+15	; 0x0f
			 break;
			 case 'e':
			 pre_buf[AMOUNT_NUM-1-i] = number[CHARACTER_e];
     de2:	c0 88       	ldd	r12, Z+16	; 0x10
			 break;
			 case 'r':
			 pre_buf[AMOUNT_NUM-1-i] = number[CHARACTER_r];
     de4:	d1 88       	ldd	r13, Z+17	; 0x11
			 break;
			 case 'l':
			 pre_buf[AMOUNT_NUM-1-i] = number[CHARACTER_l];
     de6:	e2 88       	ldd	r14, Z+18	; 0x12
			 break;
			 case 'i':
			 pre_buf[AMOUNT_NUM-1-i] = number[CHARACTER_i];
     de8:	f3 88       	ldd	r15, Z+19	; 0x13
			 break;
			 case 'a':
			 pre_buf[AMOUNT_NUM-1-i] = number[CHARACTER_a];
     dea:	05 89       	ldd	r16, Z+21	; 0x15
			 break;
			 case 'g':
			 pre_buf[AMOUNT_NUM-1-i] = number[CHARACTER_g];
     dec:	16 89       	ldd	r17, Z+22	; 0x16
			 break;
			 case 's':
			 pre_buf[AMOUNT_NUM-1-i] = number[CHARACTER_s];
     dee:	77 89       	ldd	r23, Z+23	; 0x17
			 break;
			 case 'c':
			 pre_buf[AMOUNT_NUM-1-i] = number[CHARACTER_c];
     df0:	50 8d       	ldd	r21, Z+24	; 0x18
			 break;
			 case 'u':
			 pre_buf[AMOUNT_NUM-1-i] = number[CHARACTER_u];
     df2:	41 8d       	ldd	r20, Z+25	; 0x19
			 break;
			 case '-':
			 pre_buf[AMOUNT_NUM-1-i] = number[CHARACTER_minus];
     df4:	22 8d       	ldd	r18, Z+26	; 0x1a
     df6:	2d 83       	std	Y+5, r18	; 0x05
			 break;
			 case '*':
			 pre_buf[AMOUNT_NUM-1-i] = number[CHARACTER_degree];
     df8:	23 8d       	ldd	r18, Z+27	; 0x1b
     dfa:	2e 83       	std	Y+6, r18	; 0x06
			 break;
			 
			 case '0':
			 pre_buf[AMOUNT_NUM-1-i] = number[0];
     dfc:	20 81       	ld	r18, Z
     dfe:	2f 83       	std	Y+7, r18	; 0x07
			 break;
			 case '1':
			 pre_buf[AMOUNT_NUM-1-i] = number[1];
     e00:	21 81       	ldd	r18, Z+1	; 0x01
     e02:	28 87       	std	Y+8, r18	; 0x08
			 break;
			 case '2':
			 pre_buf[AMOUNT_NUM-1-i] = number[2];
     e04:	22 81       	ldd	r18, Z+2	; 0x02
     e06:	29 87       	std	Y+9, r18	; 0x09
			 break;
			 case '3':
			 pre_buf[AMOUNT_NUM-1-i] = number[3];
     e08:	23 81       	ldd	r18, Z+3	; 0x03
     e0a:	2a 87       	std	Y+10, r18	; 0x0a
			 break;
			 case '4':
			 pre_buf[AMOUNT_NUM-1-i] = number[4];
     e0c:	24 81       	ldd	r18, Z+4	; 0x04
     e0e:	2b 87       	std	Y+11, r18	; 0x0b
			 break;
			 case '5':
			 pre_buf[AMOUNT_NUM-1-i] = number[5];
     e10:	25 81       	ldd	r18, Z+5	; 0x05
     e12:	2c 87       	std	Y+12, r18	; 0x0c
			 break;
			 case '6':
			 pre_buf[AMOUNT_NUM-1-i] = number[6];
     e14:	26 81       	ldd	r18, Z+6	; 0x06
     e16:	2d 87       	std	Y+13, r18	; 0x0d
			 break;
			 case '7':
			 pre_buf[AMOUNT_NUM-1-i] = number[7];
     e18:	27 81       	ldd	r18, Z+7	; 0x07
     e1a:	2e 87       	std	Y+14, r18	; 0x0e
			 break;
			 case '8':
			 pre_buf[AMOUNT_NUM-1-i] = number[8];
     e1c:	20 85       	ldd	r18, Z+8	; 0x08
     e1e:	2f 87       	std	Y+15, r18	; 0x0f
			 break;
			 case '9':
			 pre_buf[AMOUNT_NUM-1-i] = number[9];
     e20:	21 85       	ldd	r18, Z+9	; 0x09
     e22:	28 8b       	std	Y+16, r18	; 0x10
			 break;
			 
			 default:
			 pre_buf[AMOUNT_NUM-1-i] = number[CHARACTER_];
     e24:	24 89       	ldd	r18, Z+20	; 0x14
     e26:	29 8b       	std	Y+17, r18	; 0x11
     e28:	de 01       	movw	r26, r28
     e2a:	14 96       	adiw	r26, 0x04	; 4
     e2c:	9e 01       	movw	r18, r28
	 unsigned char i;
	 unsigned char pre_buf[AMOUNT_NUM] = {0, 0, 0, 0}; // pre_buf we use becouse: updating display occures with big fraquancy - every 2ms and in the interupts - so it 
		                                               // could indid update the same buf[] value it is needed to change buf[] in the shortest time  as posible.
	 for(i = 0; i < AMOUNT_NUM; i++)  // 
	 {
		 switch (text[i])
     e2e:	fc 01       	movw	r30, r24
     e30:	41 90       	ld	r4, Z+
     e32:	cf 01       	movw	r24, r30
     e34:	51 2c       	mov	r5, r1
     e36:	f2 01       	movw	r30, r4
     e38:	ba 97       	sbiw	r30, 0x2a	; 42
     e3a:	e0 35       	cpi	r30, 0x50	; 80
     e3c:	f1 05       	cpc	r31, r1
     e3e:	08 f0       	brcs	.+2      	; 0xe42 <_Z14IND_OutputTextPKch+0xac>
     e40:	46 c0       	rjmp	.+140    	; 0xece <_Z14IND_OutputTextPKch+0x138>
     e42:	e5 57       	subi	r30, 0x75	; 117
     e44:	ff 4f       	sbci	r31, 0xFF	; 255
     e46:	0c 94 cb 19 	jmp	0x3396	; 0x3396 <__tablejump2__>
		 {
			 case 'o':
			 pre_buf[AMOUNT_NUM-1-i] = number[CHARACTER_o];
     e4a:	2c 92       	st	X, r2
			 break;
     e4c:	42 c0       	rjmp	.+132    	; 0xed2 <_Z14IND_OutputTextPKch+0x13c>
			 case 'p':
			 pre_buf[AMOUNT_NUM-1-i] = number[CHARACTER_p];
     e4e:	3c 92       	st	X, r3
			 break;
     e50:	40 c0       	rjmp	.+128    	; 0xed2 <_Z14IND_OutputTextPKch+0x13c>
			 case 'n':
			 pre_buf[AMOUNT_NUM-1-i] = number[CHARACTER_n];
     e52:	8c 92       	st	X, r8
			 break;
     e54:	3e c0       	rjmp	.+124    	; 0xed2 <_Z14IND_OutputTextPKch+0x13c>
			 case 'd':
			 pre_buf[AMOUNT_NUM-1-i] = number[CHARACTER_d];
     e56:	9c 92       	st	X, r9
			 break;
     e58:	3c c0       	rjmp	.+120    	; 0xed2 <_Z14IND_OutputTextPKch+0x13c>
			 case 'y':
			 pre_buf[AMOUNT_NUM-1-i] = number[CHARACTER_y];
     e5a:	ac 92       	st	X, r10
			 break;
     e5c:	3a c0       	rjmp	.+116    	; 0xed2 <_Z14IND_OutputTextPKch+0x13c>
			 case 't':
			 pre_buf[AMOUNT_NUM-1-i] = number[CHARACTER_t];
     e5e:	bc 92       	st	X, r11
			 break;
     e60:	38 c0       	rjmp	.+112    	; 0xed2 <_Z14IND_OutputTextPKch+0x13c>
			 case 'e':
			 pre_buf[AMOUNT_NUM-1-i] = number[CHARACTER_e];
     e62:	cc 92       	st	X, r12
			 break;
     e64:	36 c0       	rjmp	.+108    	; 0xed2 <_Z14IND_OutputTextPKch+0x13c>
			 case 'r':
			 pre_buf[AMOUNT_NUM-1-i] = number[CHARACTER_r];
     e66:	dc 92       	st	X, r13
			 break;
     e68:	34 c0       	rjmp	.+104    	; 0xed2 <_Z14IND_OutputTextPKch+0x13c>
			 case 'l':
			 pre_buf[AMOUNT_NUM-1-i] = number[CHARACTER_l];
     e6a:	ec 92       	st	X, r14
			 break;
     e6c:	32 c0       	rjmp	.+100    	; 0xed2 <_Z14IND_OutputTextPKch+0x13c>
			 case 'i':
			 pre_buf[AMOUNT_NUM-1-i] = number[CHARACTER_i];
     e6e:	fc 92       	st	X, r15
			 break;
     e70:	30 c0       	rjmp	.+96     	; 0xed2 <_Z14IND_OutputTextPKch+0x13c>
			 case 'a':
			 pre_buf[AMOUNT_NUM-1-i] = number[CHARACTER_a];
     e72:	0c 93       	st	X, r16
			 break;
     e74:	2e c0       	rjmp	.+92     	; 0xed2 <_Z14IND_OutputTextPKch+0x13c>
			 case 'g':
			 pre_buf[AMOUNT_NUM-1-i] = number[CHARACTER_g];
     e76:	1c 93       	st	X, r17
			 break;
     e78:	2c c0       	rjmp	.+88     	; 0xed2 <_Z14IND_OutputTextPKch+0x13c>
			 case 's':
			 pre_buf[AMOUNT_NUM-1-i] = number[CHARACTER_s];
     e7a:	7c 93       	st	X, r23
			 break;
     e7c:	2a c0       	rjmp	.+84     	; 0xed2 <_Z14IND_OutputTextPKch+0x13c>
			 case 'c':
			 pre_buf[AMOUNT_NUM-1-i] = number[CHARACTER_c];
     e7e:	5c 93       	st	X, r21
			 break;
     e80:	28 c0       	rjmp	.+80     	; 0xed2 <_Z14IND_OutputTextPKch+0x13c>
			 case 'u':
			 pre_buf[AMOUNT_NUM-1-i] = number[CHARACTER_u];
     e82:	4c 93       	st	X, r20
			 break;
     e84:	26 c0       	rjmp	.+76     	; 0xed2 <_Z14IND_OutputTextPKch+0x13c>
			 case '-':
			 pre_buf[AMOUNT_NUM-1-i] = number[CHARACTER_minus];
     e86:	fd 81       	ldd	r31, Y+5	; 0x05
     e88:	fc 93       	st	X, r31
			 break;
     e8a:	23 c0       	rjmp	.+70     	; 0xed2 <_Z14IND_OutputTextPKch+0x13c>
			 case '*':
			 pre_buf[AMOUNT_NUM-1-i] = number[CHARACTER_degree];
     e8c:	ee 81       	ldd	r30, Y+6	; 0x06
     e8e:	ec 93       	st	X, r30
			 break;
     e90:	20 c0       	rjmp	.+64     	; 0xed2 <_Z14IND_OutputTextPKch+0x13c>
			 
			 case '0':
			 pre_buf[AMOUNT_NUM-1-i] = number[0];
     e92:	ff 81       	ldd	r31, Y+7	; 0x07
     e94:	fc 93       	st	X, r31
			 break;
     e96:	1d c0       	rjmp	.+58     	; 0xed2 <_Z14IND_OutputTextPKch+0x13c>
			 case '1':
			 pre_buf[AMOUNT_NUM-1-i] = number[1];
     e98:	e8 85       	ldd	r30, Y+8	; 0x08
     e9a:	ec 93       	st	X, r30
			 break;
     e9c:	1a c0       	rjmp	.+52     	; 0xed2 <_Z14IND_OutputTextPKch+0x13c>
			 case '2':
			 pre_buf[AMOUNT_NUM-1-i] = number[2];
     e9e:	f9 85       	ldd	r31, Y+9	; 0x09
     ea0:	fc 93       	st	X, r31
			 break;
     ea2:	17 c0       	rjmp	.+46     	; 0xed2 <_Z14IND_OutputTextPKch+0x13c>
			 case '3':
			 pre_buf[AMOUNT_NUM-1-i] = number[3];
     ea4:	ea 85       	ldd	r30, Y+10	; 0x0a
     ea6:	ec 93       	st	X, r30
			 break;
     ea8:	14 c0       	rjmp	.+40     	; 0xed2 <_Z14IND_OutputTextPKch+0x13c>
			 case '4':
			 pre_buf[AMOUNT_NUM-1-i] = number[4];
     eaa:	fb 85       	ldd	r31, Y+11	; 0x0b
     eac:	fc 93       	st	X, r31
			 break;
     eae:	11 c0       	rjmp	.+34     	; 0xed2 <_Z14IND_OutputTextPKch+0x13c>
			 case '5':
			 pre_buf[AMOUNT_NUM-1-i] = number[5];
     eb0:	ec 85       	ldd	r30, Y+12	; 0x0c
     eb2:	ec 93       	st	X, r30
			 break;
     eb4:	0e c0       	rjmp	.+28     	; 0xed2 <_Z14IND_OutputTextPKch+0x13c>
			 case '6':
			 pre_buf[AMOUNT_NUM-1-i] = number[6];
     eb6:	fd 85       	ldd	r31, Y+13	; 0x0d
     eb8:	fc 93       	st	X, r31
			 break;
     eba:	0b c0       	rjmp	.+22     	; 0xed2 <_Z14IND_OutputTextPKch+0x13c>
			 case '7':
			 pre_buf[AMOUNT_NUM-1-i] = number[7];
     ebc:	ee 85       	ldd	r30, Y+14	; 0x0e
     ebe:	ec 93       	st	X, r30
			 break;
     ec0:	08 c0       	rjmp	.+16     	; 0xed2 <_Z14IND_OutputTextPKch+0x13c>
			 case '8':
			 pre_buf[AMOUNT_NUM-1-i] = number[8];
     ec2:	ff 85       	ldd	r31, Y+15	; 0x0f
     ec4:	fc 93       	st	X, r31
			 break;
     ec6:	05 c0       	rjmp	.+10     	; 0xed2 <_Z14IND_OutputTextPKch+0x13c>
			 case '9':
			 pre_buf[AMOUNT_NUM-1-i] = number[9];
     ec8:	e8 89       	ldd	r30, Y+16	; 0x10
     eca:	ec 93       	st	X, r30
			 break;
     ecc:	02 c0       	rjmp	.+4      	; 0xed2 <_Z14IND_OutputTextPKch+0x13c>
			 
			 default:
			 pre_buf[AMOUNT_NUM-1-i] = number[CHARACTER_];
     ece:	f9 89       	ldd	r31, Y+17	; 0x11
     ed0:	fc 93       	st	X, r31
     ed2:	11 97       	sbiw	r26, 0x01	; 1
void IND_OutputText(const char* text, unsigned char comma)
{
	 unsigned char i;
	 unsigned char pre_buf[AMOUNT_NUM] = {0, 0, 0, 0}; // pre_buf we use becouse: updating display occures with big fraquancy - every 2ms and in the interupts - so it 
		                                               // could indid update the same buf[] value it is needed to change buf[] in the shortest time  as posible.
	 for(i = 0; i < AMOUNT_NUM; i++)  // 
     ed4:	a2 17       	cp	r26, r18
     ed6:	b3 07       	cpc	r27, r19
     ed8:	09 f0       	breq	.+2      	; 0xedc <_Z14IND_OutputTextPKch+0x146>
     eda:	a9 cf       	rjmp	.-174    	; 0xe2e <_Z14IND_OutputTextPKch+0x98>
			 default:
			 pre_buf[AMOUNT_NUM-1-i] = number[CHARACTER_];
		 }
	 }
 
 if ( (comma < AMOUNT_NUM+1)&& (comma !=0) )
     edc:	8f ef       	ldi	r24, 0xFF	; 255
     ede:	86 0f       	add	r24, r22
     ee0:	84 30       	cpi	r24, 0x04	; 4
     ee2:	30 f4       	brcc	.+12     	; 0xef0 <_Z14IND_OutputTextPKch+0x15a>
 {
	 pre_buf[comma-1] |= 1<<(SEG_DP);	 
     ee4:	fe 01       	movw	r30, r28
     ee6:	e6 0f       	add	r30, r22
     ee8:	f1 1d       	adc	r31, r1
     eea:	80 81       	ld	r24, Z
     eec:	80 68       	ori	r24, 0x80	; 128
     eee:	80 83       	st	Z, r24
 }
 for(i = 0; i < AMOUNT_NUM; i++)
 {
	  buf[i] = pre_buf[i];  // pre_buf we use becouse: updating display occures with big fraquancy - every 2ms and in the interupts - so it
     ef0:	89 81       	ldd	r24, Y+1	; 0x01
     ef2:	e6 e8       	ldi	r30, 0x86	; 134
     ef4:	f3 e0       	ldi	r31, 0x03	; 3
     ef6:	80 83       	st	Z, r24
     ef8:	8a 81       	ldd	r24, Y+2	; 0x02
     efa:	81 83       	std	Z+1, r24	; 0x01
     efc:	8b 81       	ldd	r24, Y+3	; 0x03
     efe:	82 83       	std	Z+2, r24	; 0x02
     f00:	8c 81       	ldd	r24, Y+4	; 0x04
     f02:	83 83       	std	Z+3, r24	; 0x03
	  // could indid update the same buf[] value it is needed to change buf[] in the shortest time  as posible.
 }
}
     f04:	61 96       	adiw	r28, 0x11	; 17
     f06:	0f b6       	in	r0, 0x3f	; 63
     f08:	f8 94       	cli
     f0a:	de bf       	out	0x3e, r29	; 62
     f0c:	0f be       	out	0x3f, r0	; 63
     f0e:	cd bf       	out	0x3d, r28	; 61
     f10:	df 91       	pop	r29
     f12:	cf 91       	pop	r28
     f14:	1f 91       	pop	r17
     f16:	0f 91       	pop	r16
     f18:	ff 90       	pop	r15
     f1a:	ef 90       	pop	r14
     f1c:	df 90       	pop	r13
     f1e:	cf 90       	pop	r12
     f20:	bf 90       	pop	r11
     f22:	af 90       	pop	r10
     f24:	9f 90       	pop	r9
     f26:	8f 90       	pop	r8
     f28:	7f 90       	pop	r7
     f2a:	6f 90       	pop	r6
     f2c:	5f 90       	pop	r5
     f2e:	4f 90       	pop	r4
     f30:	3f 90       	pop	r3
     f32:	2f 90       	pop	r2
     f34:	08 95       	ret

00000f36 <_Z17IND_OutputIntegerjh>:
//************************************************************************
void IND_OutputInteger(unsigned int value, unsigned char comma)
{
     f36:	bf 92       	push	r11
     f38:	cf 92       	push	r12
     f3a:	df 92       	push	r13
     f3c:	ef 92       	push	r14
     f3e:	ff 92       	push	r15
     f40:	0f 93       	push	r16
     f42:	1f 93       	push	r17
     f44:	cf 93       	push	r28
     f46:	df 93       	push	r29
     f48:	00 d0       	rcall	.+0      	; 0xf4a <_Z17IND_OutputIntegerjh+0x14>
     f4a:	00 d0       	rcall	.+0      	; 0xf4c <_Z17IND_OutputIntegerjh+0x16>
     f4c:	cd b7       	in	r28, 0x3d	; 61
     f4e:	de b7       	in	r29, 0x3e	; 62
     f50:	8c 01       	movw	r16, r24
     f52:	b6 2e       	mov	r11, r22
  
	 unsigned char i;
	 unsigned char tmp;
	 unsigned char pre_buf[AMOUNT_NUM] = {0, 0, 0, 0};
     f54:	19 82       	std	Y+1, r1	; 0x01
     f56:	1a 82       	std	Y+2, r1	; 0x02
     f58:	1b 82       	std	Y+3, r1	; 0x03
     f5a:	1c 82       	std	Y+4, r1	; 0x04
     f5c:	ce 01       	movw	r24, r28
     f5e:	01 96       	adiw	r24, 0x01	; 1
     f60:	7c 01       	movw	r14, r24
     f62:	6e 01       	movw	r12, r28
     f64:	95 e0       	ldi	r25, 0x05	; 5
     f66:	c9 0e       	add	r12, r25
     f68:	d1 1c       	adc	r13, r1
	 for(i = 0; i < AMOUNT_NUM; i++)
	 {
		 tmp = value % 10;
     f6a:	98 01       	movw	r18, r16
     f6c:	ad ec       	ldi	r26, 0xCD	; 205
     f6e:	bc ec       	ldi	r27, 0xCC	; 204
     f70:	0e 94 d1 19 	call	0x33a2	; 0x33a2 <__umulhisi3>
     f74:	ac 01       	movw	r20, r24
     f76:	56 95       	lsr	r21
     f78:	47 95       	ror	r20
     f7a:	56 95       	lsr	r21
     f7c:	47 95       	ror	r20
     f7e:	56 95       	lsr	r21
     f80:	47 95       	ror	r20
     f82:	ca 01       	movw	r24, r20
     f84:	88 0f       	add	r24, r24
     f86:	99 1f       	adc	r25, r25
     f88:	44 0f       	add	r20, r20
     f8a:	55 1f       	adc	r21, r21
     f8c:	44 0f       	add	r20, r20
     f8e:	55 1f       	adc	r21, r21
     f90:	44 0f       	add	r20, r20
     f92:	55 1f       	adc	r21, r21
     f94:	48 0f       	add	r20, r24
     f96:	59 1f       	adc	r21, r25
     f98:	f8 01       	movw	r30, r16
     f9a:	e4 1b       	sub	r30, r20
     f9c:	f5 0b       	sbc	r31, r21
     f9e:	ff 27       	eor	r31, r31
		 pre_buf[i] = number[tmp];
     fa0:	e5 58       	subi	r30, 0x85	; 133
     fa2:	ff 4f       	sbci	r31, 0xFF	; 255
     fa4:	80 81       	ld	r24, Z
     fa6:	f7 01       	movw	r30, r14
     fa8:	81 93       	st	Z+, r24
     faa:	7f 01       	movw	r14, r30
		 value = value/10;
     fac:	0e 94 d1 19 	call	0x33a2	; 0x33a2 <__umulhisi3>
     fb0:	8c 01       	movw	r16, r24
     fb2:	16 95       	lsr	r17
     fb4:	07 95       	ror	r16
     fb6:	16 95       	lsr	r17
     fb8:	07 95       	ror	r16
     fba:	16 95       	lsr	r17
     fbc:	07 95       	ror	r16
{
  
	 unsigned char i;
	 unsigned char tmp;
	 unsigned char pre_buf[AMOUNT_NUM] = {0, 0, 0, 0};
	 for(i = 0; i < AMOUNT_NUM; i++)
     fbe:	ec 15       	cp	r30, r12
     fc0:	fd 05       	cpc	r31, r13
     fc2:	99 f6       	brne	.-90     	; 0xf6a <_Z17IND_OutputIntegerjh+0x34>
		 tmp = value % 10;
		 pre_buf[i] = number[tmp];
		 value = value/10;
	 }
	 // in this section we prevent 0 to be displayed in higher bits positions
	 if ( (pre_buf[3] == number[0])&& (comma!=4))
     fc4:	8c 81       	ldd	r24, Y+4	; 0x04
     fc6:	90 91 7b 00 	lds	r25, 0x007B
     fca:	89 13       	cpse	r24, r25
     fcc:	14 c0       	rjmp	.+40     	; 0xff6 <_Z17IND_OutputIntegerjh+0xc0>
     fce:	f4 e0       	ldi	r31, 0x04	; 4
     fd0:	bf 16       	cp	r11, r31
     fd2:	a9 f0       	breq	.+42     	; 0xffe <_Z17IND_OutputIntegerjh+0xc8>
	 {
		 pre_buf[3] =  number[CHARACTER_];
     fd4:	90 91 8f 00 	lds	r25, 0x008F
     fd8:	9c 83       	std	Y+4, r25	; 0x04
		 if ((pre_buf[2] == number[0]) && (comma!=3))
     fda:	2b 81       	ldd	r18, Y+3	; 0x03
     fdc:	82 13       	cpse	r24, r18
     fde:	0b c0       	rjmp	.+22     	; 0xff6 <_Z17IND_OutputIntegerjh+0xc0>
     fe0:	23 e0       	ldi	r18, 0x03	; 3
     fe2:	b2 16       	cp	r11, r18
     fe4:	61 f0       	breq	.+24     	; 0xffe <_Z17IND_OutputIntegerjh+0xc8>
		 {
			 pre_buf[2] = number[CHARACTER_];
     fe6:	9b 83       	std	Y+3, r25	; 0x03
			 if ((pre_buf[1]==number[0]) && (comma!=2))
     fe8:	2a 81       	ldd	r18, Y+2	; 0x02
     fea:	82 13       	cpse	r24, r18
     fec:	04 c0       	rjmp	.+8      	; 0xff6 <_Z17IND_OutputIntegerjh+0xc0>
     fee:	82 e0       	ldi	r24, 0x02	; 2
     ff0:	b8 16       	cp	r11, r24
     ff2:	29 f0       	breq	.+10     	; 0xffe <_Z17IND_OutputIntegerjh+0xc8>
			 {
				 pre_buf[1] = number[CHARACTER_];
     ff4:	9a 83       	std	Y+2, r25	; 0x02
			 }
		 }
	 }
	 
		 
	 if ( (comma < AMOUNT_NUM+1)&& (comma !=0) )
     ff6:	8f ef       	ldi	r24, 0xFF	; 255
     ff8:	8b 0d       	add	r24, r11
     ffa:	84 30       	cpi	r24, 0x04	; 4
     ffc:	30 f4       	brcc	.+12     	; 0x100a <_Z17IND_OutputIntegerjh+0xd4>
	 {
		 pre_buf[comma-1] |= 1<<(SEG_DP);
     ffe:	fe 01       	movw	r30, r28
    1000:	eb 0d       	add	r30, r11
    1002:	f1 1d       	adc	r31, r1
    1004:	80 81       	ld	r24, Z
    1006:	80 68       	ori	r24, 0x80	; 128
    1008:	80 83       	st	Z, r24
	 }
	 for(i = 0; i < AMOUNT_NUM; i++)
	 {
		 buf[i] = pre_buf[i];	// pre_buf we use becouse: updating display occures with big fraquancy - every 2ms and in the interupts - so it
    100a:	89 81       	ldd	r24, Y+1	; 0x01
    100c:	e6 e8       	ldi	r30, 0x86	; 134
    100e:	f3 e0       	ldi	r31, 0x03	; 3
    1010:	80 83       	st	Z, r24
    1012:	8a 81       	ldd	r24, Y+2	; 0x02
    1014:	81 83       	std	Z+1, r24	; 0x01
    1016:	8b 81       	ldd	r24, Y+3	; 0x03
    1018:	82 83       	std	Z+2, r24	; 0x02
    101a:	8c 81       	ldd	r24, Y+4	; 0x04
    101c:	83 83       	std	Z+3, r24	; 0x03
		 // could indid update the same buf[] value it is needed to change buf[] in the shortest time  as posible.
	 }
}
    101e:	0f 90       	pop	r0
    1020:	0f 90       	pop	r0
    1022:	0f 90       	pop	r0
    1024:	0f 90       	pop	r0
    1026:	df 91       	pop	r29
    1028:	cf 91       	pop	r28
    102a:	1f 91       	pop	r17
    102c:	0f 91       	pop	r16
    102e:	ff 90       	pop	r15
    1030:	ef 90       	pop	r14
    1032:	df 90       	pop	r13
    1034:	cf 90       	pop	r12
    1036:	bf 90       	pop	r11
    1038:	08 95       	ret

0000103a <_Z10FullOffINDv>:
   
void FullOffIND (void)
{
	PORT_IND = 0;
    103a:	18 ba       	out	0x18, r1	; 24
	LightOutAll();
    103c:	85 b3       	in	r24, 0x15	; 21
    103e:	80 7f       	andi	r24, 0xF0	; 240
    1040:	85 bb       	out	0x15, r24	; 21
    1042:	08 95       	ret

00001044 <_Z10IND_Updatev>:
void IND_Update(void)
{
  static unsigned char count = 0;
  
  //  
  FullOffIND();
    1044:	0e 94 1d 08 	call	0x103a	; 0x103a <_Z10FullOffINDv>
  
  //""   
  if (count == 0) BurnDigit(PORT_TR, NUM1);
    1048:	80 91 7a 03 	lds	r24, 0x037A
    104c:	81 11       	cpse	r24, r1
    104e:	02 c0       	rjmp	.+4      	; 0x1054 <_Z10IND_Updatev+0x10>
    1050:	ab 9a       	sbi	0x15, 3	; 21
    1052:	09 c0       	rjmp	.+18     	; 0x1066 <_Z10IND_Updatev+0x22>
  else if (count == 1) BurnDigit(PORT_TR, NUM2);
    1054:	81 30       	cpi	r24, 0x01	; 1
    1056:	11 f4       	brne	.+4      	; 0x105c <_Z10IND_Updatev+0x18>
    1058:	aa 9a       	sbi	0x15, 2	; 21
    105a:	05 c0       	rjmp	.+10     	; 0x1066 <_Z10IND_Updatev+0x22>
  else if (count == 2) BurnDigit(PORT_TR, NUM3);
    105c:	82 30       	cpi	r24, 0x02	; 2
    105e:	11 f4       	brne	.+4      	; 0x1064 <_Z10IND_Updatev+0x20>
    1060:	a9 9a       	sbi	0x15, 1	; 21
    1062:	01 c0       	rjmp	.+2      	; 0x1066 <_Z10IND_Updatev+0x22>
  else BurnDigit(PORT_TR, NUM4);
    1064:	a8 9a       	sbi	0x15, 0	; 21
  
  //   
  PORT_IND = ValueBuf();
    1066:	e0 91 7a 03 	lds	r30, 0x037A
    106a:	f0 e0       	ldi	r31, 0x00	; 0
    106c:	ea 57       	subi	r30, 0x7A	; 122
    106e:	fc 4f       	sbci	r31, 0xFC	; 252
    1070:	80 81       	ld	r24, Z
    1072:	88 bb       	out	0x18, r24	; 24
  
  count++;
    1074:	80 91 7a 03 	lds	r24, 0x037A
    1078:	8f 5f       	subi	r24, 0xFF	; 255
  if (count == AMOUNT_NUM) count = 0;
    107a:	84 30       	cpi	r24, 0x04	; 4
    107c:	19 f0       	breq	.+6      	; 0x1084 <_Z10IND_Updatev+0x40>
  else BurnDigit(PORT_TR, NUM4);
  
  //   
  PORT_IND = ValueBuf();
  
  count++;
    107e:	80 93 7a 03 	sts	0x037A, r24
    1082:	08 95       	ret
  if (count == AMOUNT_NUM) count = 0;
    1084:	10 92 7a 03 	sts	0x037A, r1
    1088:	08 95       	ret

0000108a <_Z13IND_Upd_bliksv>:
repeatingHandler blickOn;
repeatingHandler blickOff;
void IND_Upd_bliks (void)
{
    static bool light_on = false;
    if (light_on)    //  make light on for some period
    108a:	80 91 79 03 	lds	r24, 0x0379
    108e:	88 23       	and	r24, r24
    1090:	c9 f0       	breq	.+50     	; 0x10c4 <_Z13IND_Upd_bliksv+0x3a>
	{		
		if (period==0)
		{
			return false;  // out if period =0; don't repeat at all	
		}		
		if (perform==false)	
    1092:	80 91 84 03 	lds	r24, 0x0384
    1096:	81 11       	cpse	r24, r1
    1098:	07 c0       	rjmp	.+14     	; 0x10a8 <_Z13IND_Upd_bliksv+0x1e>
		{
			perform = true;		
    109a:	e0 e8       	ldi	r30, 0x80	; 128
    109c:	f3 e0       	ldi	r31, 0x03	; 3
    109e:	81 e0       	ldi	r24, 0x01	; 1
    10a0:	84 83       	std	Z+4, r24	; 0x04
			ticks = 0;
    10a2:	13 82       	std	Z+3, r1	; 0x03
    10a4:	12 82       	std	Z+2, r1	; 0x02
    10a6:	0b c0       	rjmp	.+22     	; 0x10be <_Z13IND_Upd_bliksv+0x34>
			return false;								
		}		
		
		if (perform==true)
		{
			if (ticks>=period)
    10a8:	80 91 82 03 	lds	r24, 0x0382
    10ac:	90 91 83 03 	lds	r25, 0x0383
    10b0:	84 3f       	cpi	r24, 0xF4	; 244
    10b2:	91 40       	sbci	r25, 0x01	; 1
    10b4:	20 f0       	brcs	.+8      	; 0x10be <_Z13IND_Upd_bliksv+0x34>
			{
				perform = false;
    10b6:	10 92 84 03 	sts	0x0384, r1
    {
	   
	   if (blickOn.repeat(BLICKON)) light_on = false;
    10ba:	10 92 79 03 	sts	0x0379, r1
	   IND_Update();	    
    10be:	0e 94 22 08 	call	0x1044	; 0x1044 <_Z10IND_Updatev>
    10c2:	08 95       	ret
    }
    else       // turn off for some period
    {
	   LightOutAll();
    10c4:	85 b3       	in	r24, 0x15	; 21
    10c6:	80 7f       	andi	r24, 0xF0	; 240
    10c8:	85 bb       	out	0x15, r24	; 21
	{		
		if (period==0)
		{
			return false;  // out if period =0; don't repeat at all	
		}		
		if (perform==false)	
    10ca:	80 91 7f 03 	lds	r24, 0x037F
    10ce:	81 11       	cpse	r24, r1
    10d0:	07 c0       	rjmp	.+14     	; 0x10e0 <_Z13IND_Upd_bliksv+0x56>
		{
			perform = true;		
    10d2:	eb e7       	ldi	r30, 0x7B	; 123
    10d4:	f3 e0       	ldi	r31, 0x03	; 3
    10d6:	81 e0       	ldi	r24, 0x01	; 1
    10d8:	84 83       	std	Z+4, r24	; 0x04
			ticks = 0;
    10da:	13 82       	std	Z+3, r1	; 0x03
    10dc:	12 82       	std	Z+2, r1	; 0x02
    10de:	08 95       	ret
			return false;								
		}		
		
		if (perform==true)
		{
			if (ticks>=period)
    10e0:	80 91 7d 03 	lds	r24, 0x037D
    10e4:	90 91 7e 03 	lds	r25, 0x037E
    10e8:	80 39       	cpi	r24, 0x90	; 144
    10ea:	91 40       	sbci	r25, 0x01	; 1
    10ec:	28 f0       	brcs	.+10     	; 0x10f8 <_Z13IND_Upd_bliksv+0x6e>
			{
				perform = false;
    10ee:	10 92 7f 03 	sts	0x037F, r1
	   if (blickOff.repeat(BLICKOFF)) light_on = true;	   
    10f2:	81 e0       	ldi	r24, 0x01	; 1
    10f4:	80 93 79 03 	sts	0x0379, r24
    10f8:	08 95       	ret

000010fa <_GLOBAL__sub_I_buf>:
  if (count == AMOUNT_NUM) count = 0;
}



repeatingHandler blickOn;
    10fa:	80 e8       	ldi	r24, 0x80	; 128
    10fc:	93 e0       	ldi	r25, 0x03	; 3
    10fe:	0e 94 09 0a 	call	0x1412	; 0x1412 <_ZN16repeatingHandlerC1Ev>
repeatingHandler blickOff;
    1102:	8b e7       	ldi	r24, 0x7B	; 123
    1104:	93 e0       	ldi	r25, 0x03	; 3
    1106:	0e 94 09 0a 	call	0x1412	; 0x1412 <_ZN16repeatingHandlerC1Ev>
    110a:	08 95       	ret

0000110c <_GLOBAL__sub_D_buf>:
    110c:	8b e7       	ldi	r24, 0x7B	; 123
    110e:	93 e0       	ldi	r25, 0x03	; 3
    1110:	0e 94 10 0a 	call	0x1420	; 0x1420 <_ZN16repeatingHandlerD1Ev>
  if (count == AMOUNT_NUM) count = 0;
}



repeatingHandler blickOn;
    1114:	80 e8       	ldi	r24, 0x80	; 128
    1116:	93 e0       	ldi	r25, 0x03	; 3
    1118:	0e 94 10 0a 	call	0x1420	; 0x1420 <_ZN16repeatingHandlerD1Ev>
    111c:	08 95       	ret

0000111e <_Z9Total_iniv>:



void Total_ini (void)
{
	IND_Init();			
    111e:	0e 94 cd 05 	call	0xb9a	; 0xb9a <_Z8IND_Initv>
	Menu_Ini();
    1122:	0e 94 d3 0c 	call	0x19a6	; 0x19a6 <_Z8Menu_Iniv>
	
	
	Sounder_port_ini();
    1126:	0e 94 80 0a 	call	0x1500	; 0x1500 <_Z16Sounder_port_iniv>
	
	Atmega16Timer16bitIni ();
    112a:	0e 94 47 16 	call	0x2c8e	; 0x2c8e <_Z21Atmega16Timer16bitIniv>
	Timer2Atmega16RTC_ini();
    112e:	0e 94 11 0a 	call	0x1422	; 0x1422 <_Z21Timer2Atmega16RTC_iniv>
	Buttons_initial();
    1132:	0e 94 ee 12 	call	0x25dc	; 0x25dc <_Z15Buttons_initialv>
    1136:	08 95       	ret

00001138 <_Z16LightOutAll_Ledsv>:
#define PORT_menu PORTD
#define PIN_menu 2

void LightOutAll_Leds (void)
{
	PORT_tcomf &= ~(1<<PIN_tcomf);
    1138:	ac 98       	cbi	0x15, 4	; 21
	DDR_tcomf |= (1<<PIN_tcomf);
    113a:	a4 9a       	sbi	0x14, 4	; 20
	
	PORT_teco &= ~(1<<PIN_teco);
    113c:	ad 98       	cbi	0x15, 5	; 21
	DDR_teco |= (1<<PIN_teco);
    113e:	a5 9a       	sbi	0x14, 5	; 20
	
	PORT_toutside &= ~(1<<PIN_toutside);
    1140:	dc 98       	cbi	0x1b, 4	; 27
	DDR_toutside |= (1<<PIN_toutside);
    1142:	d4 9a       	sbi	0x1a, 4	; 26
	
	PORT_tflow &= ~(1<<PIN_tflow);
    1144:	db 98       	cbi	0x1b, 3	; 27
	DDR_tflow |= (1<<PIN_tflow);
    1146:	d3 9a       	sbi	0x1a, 3	; 26
	
	PORT_tset &= ~(1<<PIN_tset);
    1148:	90 98       	cbi	0x12, 0	; 18
	DDR_tset |= (1<<PIN_tset);
    114a:	88 9a       	sbi	0x11, 0	; 17
	
	PORT_prog &= ~(1<<PIN_prog);
    114c:	91 98       	cbi	0x12, 1	; 18
	DDR_prog |= (1<<PIN_prog);
    114e:	89 9a       	sbi	0x11, 1	; 17
	
	PORT_menu &= ~(1<<PIN_menu);
    1150:	92 98       	cbi	0x12, 2	; 18
	DDR_menu |= (1<<PIN_menu);
    1152:	8a 9a       	sbi	0x11, 2	; 17
    1154:	08 95       	ret

00001156 <_Z10LightUpLed7led_num>:
		
}
void LightUpLed (led_num led_number)
{
    1156:	cf 93       	push	r28
    1158:	c8 2f       	mov	r28, r24
	LightOutAll_Leds ();
    115a:	0e 94 9c 08 	call	0x1138	; 0x1138 <_Z16LightOutAll_Ledsv>
	switch (led_number)
    115e:	8c 2f       	mov	r24, r28
    1160:	90 e0       	ldi	r25, 0x00	; 0
    1162:	8e 30       	cpi	r24, 0x0E	; 14
    1164:	91 05       	cpc	r25, r1
    1166:	08 f0       	brcs	.+2      	; 0x116a <_Z10LightUpLed7led_num+0x14>
    1168:	91 c0       	rjmp	.+290    	; 0x128c <_Z10LightUpLed7led_num+0x136>
    116a:	fc 01       	movw	r30, r24
    116c:	e5 52       	subi	r30, 0x25	; 37
    116e:	ff 4f       	sbci	r31, 0xFF	; 255
    1170:	0c 94 cb 19 	jmp	0x3396	; 0x3396 <__tablejump2__>
	{
		case TCOMF_LED:
		PORT_tcomf |= (1<<PIN_tcomf);		
    1174:	ac 9a       	sbi	0x15, 4	; 21
		DDR_tcomf |= (1<<PIN_tcomf);
    1176:	a4 9a       	sbi	0x14, 4	; 20
		break;
    1178:	8b c0       	rjmp	.+278    	; 0x1290 <_Z10LightUpLed7led_num+0x13a>
		
		case TECO_LED:
		PORT_teco |= (1<<PIN_teco);
    117a:	ad 9a       	sbi	0x15, 5	; 21
		DDR_teco |= (1<<PIN_teco);
    117c:	a5 9a       	sbi	0x14, 5	; 20
		break;
    117e:	88 c0       	rjmp	.+272    	; 0x1290 <_Z10LightUpLed7led_num+0x13a>
		
		case TOUTSIDE_LED:
		PORT_toutside |= (1<<PIN_toutside);
    1180:	dc 9a       	sbi	0x1b, 4	; 27
		DDR_toutside |= (1<<PIN_toutside);
    1182:	d4 9a       	sbi	0x1a, 4	; 26
		break;
    1184:	85 c0       	rjmp	.+266    	; 0x1290 <_Z10LightUpLed7led_num+0x13a>
				
		case TFLOW_LED:
		PORT_tflow |= (1<<PIN_tflow);
    1186:	db 9a       	sbi	0x1b, 3	; 27
		DDR_tflow |= (1<<PIN_tflow);
    1188:	d3 9a       	sbi	0x1a, 3	; 26
		break;
    118a:	82 c0       	rjmp	.+260    	; 0x1290 <_Z10LightUpLed7led_num+0x13a>
				
		case TSET_LED:
		PORT_tset |= (1<<PIN_tset);
    118c:	90 9a       	sbi	0x12, 0	; 18
		DDR_tset |= (1<<PIN_tset);
    118e:	88 9a       	sbi	0x11, 0	; 17
		break;
    1190:	7f c0       	rjmp	.+254    	; 0x1290 <_Z10LightUpLed7led_num+0x13a>
	
		case PROG_LED:
		PORT_prog |= (1<<PIN_prog);
    1192:	91 9a       	sbi	0x12, 1	; 18
		DDR_prog |= (1<<PIN_prog);
    1194:	89 9a       	sbi	0x11, 1	; 17
		break;
    1196:	7c c0       	rjmp	.+248    	; 0x1290 <_Z10LightUpLed7led_num+0x13a>
		
		case MENU_LED:
		PORT_menu |= (1<<PIN_menu);
    1198:	92 9a       	sbi	0x12, 2	; 18
		DDR_menu |= (1<<PIN_menu);
    119a:	8a 9a       	sbi	0x11, 2	; 17
		break;
    119c:	79 c0       	rjmp	.+242    	; 0x1290 <_Z10LightUpLed7led_num+0x13a>
		
		case MO_LED:
		{			
		   static char count = 0;		  
		   	   
		   if (count < 1)
    119e:	80 91 90 03 	lds	r24, 0x0390
    11a2:	81 11       	cpse	r24, r1
    11a4:	02 c0       	rjmp	.+4      	; 0x11aa <_Z10LightUpLed7led_num+0x54>
		   {
			PORT_tcomf |= (1<<PIN_tcomf);
    11a6:	ac 9a       	sbi	0x15, 4	; 21
			DDR_tcomf |= (1<<PIN_tcomf);			 
    11a8:	a4 9a       	sbi	0x14, 4	; 20
		   }
		   count++;				
    11aa:	80 91 90 03 	lds	r24, 0x0390
    11ae:	8f 5f       	subi	r24, 0xFF	; 255
		   if (count >=BLICKPERIOD) count = 0;  
    11b0:	84 30       	cpi	r24, 0x04	; 4
    11b2:	18 f4       	brcc	.+6      	; 0x11ba <_Z10LightUpLed7led_num+0x64>
		   if (count < 1)
		   {
			PORT_tcomf |= (1<<PIN_tcomf);
			DDR_tcomf |= (1<<PIN_tcomf);			 
		   }
		   count++;				
    11b4:	80 93 90 03 	sts	0x0390, r24
    11b8:	6b c0       	rjmp	.+214    	; 0x1290 <_Z10LightUpLed7led_num+0x13a>
		   if (count >=BLICKPERIOD) count = 0;  
    11ba:	10 92 90 03 	sts	0x0390, r1
    11be:	68 c0       	rjmp	.+208    	; 0x1290 <_Z10LightUpLed7led_num+0x13a>
			
		case TU_LED:
		{
			static char count = 0;			
			
			if (count < 1)
    11c0:	80 91 8f 03 	lds	r24, 0x038F
    11c4:	81 11       	cpse	r24, r1
    11c6:	02 c0       	rjmp	.+4      	; 0x11cc <_Z10LightUpLed7led_num+0x76>
			{
				PORT_teco |= (1<<PIN_teco);
    11c8:	ad 9a       	sbi	0x15, 5	; 21
				DDR_teco |= (1<<PIN_teco);			
    11ca:	a5 9a       	sbi	0x14, 5	; 20
			}
			count++;
    11cc:	80 91 8f 03 	lds	r24, 0x038F
    11d0:	8f 5f       	subi	r24, 0xFF	; 255
			if (count >=BLICKPERIOD) count = 0;  
    11d2:	84 30       	cpi	r24, 0x04	; 4
    11d4:	18 f4       	brcc	.+6      	; 0x11dc <_Z10LightUpLed7led_num+0x86>
			if (count < 1)
			{
				PORT_teco |= (1<<PIN_teco);
				DDR_teco |= (1<<PIN_teco);			
			}
			count++;
    11d6:	80 93 8f 03 	sts	0x038F, r24
    11da:	5a c0       	rjmp	.+180    	; 0x1290 <_Z10LightUpLed7led_num+0x13a>
			if (count >=BLICKPERIOD) count = 0;  
    11dc:	10 92 8f 03 	sts	0x038F, r1
    11e0:	57 c0       	rjmp	.+174    	; 0x1290 <_Z10LightUpLed7led_num+0x13a>
		
		case WE_LED:
		{
			static char count = 0;			
			
			if (count < 1)
    11e2:	80 91 8e 03 	lds	r24, 0x038E
    11e6:	81 11       	cpse	r24, r1
    11e8:	02 c0       	rjmp	.+4      	; 0x11ee <_Z10LightUpLed7led_num+0x98>
			{
				PORT_toutside |= (1<<PIN_toutside);
    11ea:	dc 9a       	sbi	0x1b, 4	; 27
				DDR_toutside |= (1<<PIN_toutside);			
    11ec:	d4 9a       	sbi	0x1a, 4	; 26
			}
			count++;
    11ee:	80 91 8e 03 	lds	r24, 0x038E
    11f2:	8f 5f       	subi	r24, 0xFF	; 255
			if (count >=BLICKPERIOD) count = 0;  
    11f4:	84 30       	cpi	r24, 0x04	; 4
    11f6:	18 f4       	brcc	.+6      	; 0x11fe <_Z10LightUpLed7led_num+0xa8>
			if (count < 1)
			{
				PORT_toutside |= (1<<PIN_toutside);
				DDR_toutside |= (1<<PIN_toutside);			
			}
			count++;
    11f8:	80 93 8e 03 	sts	0x038E, r24
    11fc:	49 c0       	rjmp	.+146    	; 0x1290 <_Z10LightUpLed7led_num+0x13a>
			if (count >=BLICKPERIOD) count = 0;  
    11fe:	10 92 8e 03 	sts	0x038E, r1
    1202:	46 c0       	rjmp	.+140    	; 0x1290 <_Z10LightUpLed7led_num+0x13a>
		
		case TH_LED:
		{
			static char count = 0;			
			
			if (count < 1)
    1204:	80 91 8d 03 	lds	r24, 0x038D
    1208:	81 11       	cpse	r24, r1
    120a:	02 c0       	rjmp	.+4      	; 0x1210 <_Z10LightUpLed7led_num+0xba>
			{
				PORT_tflow |= (1<<PIN_tflow);
    120c:	db 9a       	sbi	0x1b, 3	; 27
				DDR_tflow |= (1<<PIN_tflow);				
    120e:	d3 9a       	sbi	0x1a, 3	; 26
			}
			count++;
    1210:	80 91 8d 03 	lds	r24, 0x038D
    1214:	8f 5f       	subi	r24, 0xFF	; 255
			if (count >=BLICKPERIOD) count = 0;  
    1216:	84 30       	cpi	r24, 0x04	; 4
    1218:	18 f4       	brcc	.+6      	; 0x1220 <_Z10LightUpLed7led_num+0xca>
			if (count < 1)
			{
				PORT_tflow |= (1<<PIN_tflow);
				DDR_tflow |= (1<<PIN_tflow);				
			}
			count++;
    121a:	80 93 8d 03 	sts	0x038D, r24
    121e:	38 c0       	rjmp	.+112    	; 0x1290 <_Z10LightUpLed7led_num+0x13a>
			if (count >=BLICKPERIOD) count = 0;  
    1220:	10 92 8d 03 	sts	0x038D, r1
    1224:	35 c0       	rjmp	.+106    	; 0x1290 <_Z10LightUpLed7led_num+0x13a>
		
		case FR_LED:
		{
			static char count = 0;			
			
			if (count < 1)
    1226:	80 91 8c 03 	lds	r24, 0x038C
    122a:	81 11       	cpse	r24, r1
    122c:	02 c0       	rjmp	.+4      	; 0x1232 <_Z10LightUpLed7led_num+0xdc>
			{
				PORT_tset |= (1<<PIN_tset);
    122e:	90 9a       	sbi	0x12, 0	; 18
				DDR_tset |= (1<<PIN_tset);		
    1230:	88 9a       	sbi	0x11, 0	; 17
			}
			count++;
    1232:	80 91 8c 03 	lds	r24, 0x038C
    1236:	8f 5f       	subi	r24, 0xFF	; 255
			if (count >=BLICKPERIOD) count = 0;  
    1238:	84 30       	cpi	r24, 0x04	; 4
    123a:	18 f4       	brcc	.+6      	; 0x1242 <_Z10LightUpLed7led_num+0xec>
			if (count < 1)
			{
				PORT_tset |= (1<<PIN_tset);
				DDR_tset |= (1<<PIN_tset);		
			}
			count++;
    123c:	80 93 8c 03 	sts	0x038C, r24
    1240:	27 c0       	rjmp	.+78     	; 0x1290 <_Z10LightUpLed7led_num+0x13a>
			if (count >=BLICKPERIOD) count = 0;  
    1242:	10 92 8c 03 	sts	0x038C, r1
    1246:	24 c0       	rjmp	.+72     	; 0x1290 <_Z10LightUpLed7led_num+0x13a>
		
		case SA_LED:
		{
			static char count = 0;			
			
			if (count < 1)
    1248:	80 91 8b 03 	lds	r24, 0x038B
    124c:	81 11       	cpse	r24, r1
    124e:	02 c0       	rjmp	.+4      	; 0x1254 <_Z10LightUpLed7led_num+0xfe>
			{
				PORT_prog |= (1<<PIN_prog);
    1250:	91 9a       	sbi	0x12, 1	; 18
				DDR_prog |= (1<<PIN_prog);				
    1252:	89 9a       	sbi	0x11, 1	; 17
			}
			count++;
    1254:	80 91 8b 03 	lds	r24, 0x038B
    1258:	8f 5f       	subi	r24, 0xFF	; 255
			if (count >=BLICKPERIOD) count = 0;  			
    125a:	84 30       	cpi	r24, 0x04	; 4
    125c:	18 f4       	brcc	.+6      	; 0x1264 <_Z10LightUpLed7led_num+0x10e>
			if (count < 1)
			{
				PORT_prog |= (1<<PIN_prog);
				DDR_prog |= (1<<PIN_prog);				
			}
			count++;
    125e:	80 93 8b 03 	sts	0x038B, r24
    1262:	16 c0       	rjmp	.+44     	; 0x1290 <_Z10LightUpLed7led_num+0x13a>
			if (count >=BLICKPERIOD) count = 0;  			
    1264:	10 92 8b 03 	sts	0x038B, r1
    1268:	13 c0       	rjmp	.+38     	; 0x1290 <_Z10LightUpLed7led_num+0x13a>
		
		case SU_LED:
		{
			static char count = 0;
					
			if (count < 1)
    126a:	80 91 8a 03 	lds	r24, 0x038A
    126e:	81 11       	cpse	r24, r1
    1270:	02 c0       	rjmp	.+4      	; 0x1276 <_Z10LightUpLed7led_num+0x120>
			{
				PORT_menu |= (1<<PIN_menu);
    1272:	92 9a       	sbi	0x12, 2	; 18
				DDR_menu |= (1<<PIN_menu);				
    1274:	8a 9a       	sbi	0x11, 2	; 17
			}
			count++;
    1276:	80 91 8a 03 	lds	r24, 0x038A
    127a:	8f 5f       	subi	r24, 0xFF	; 255
			if (count >=BLICKPERIOD) count = 0;  
    127c:	84 30       	cpi	r24, 0x04	; 4
    127e:	18 f4       	brcc	.+6      	; 0x1286 <_Z10LightUpLed7led_num+0x130>
			if (count < 1)
			{
				PORT_menu |= (1<<PIN_menu);
				DDR_menu |= (1<<PIN_menu);				
			}
			count++;
    1280:	80 93 8a 03 	sts	0x038A, r24
    1284:	05 c0       	rjmp	.+10     	; 0x1290 <_Z10LightUpLed7led_num+0x13a>
			if (count >=BLICKPERIOD) count = 0;  
    1286:	10 92 8a 03 	sts	0x038A, r1
    128a:	02 c0       	rjmp	.+4      	; 0x1290 <_Z10LightUpLed7led_num+0x13a>
			break;
		}
		
		
		default:
		LightOutAll_Leds ();
    128c:	0e 94 9c 08 	call	0x1138	; 0x1138 <_Z16LightOutAll_Ledsv>
	}
	
    1290:	cf 91       	pop	r28
    1292:	08 95       	ret

00001294 <_ZN4ProgC1Ellllll>:
#include "Prog.h"
#include "global_varibals.h"
#include "Timing.h"

// default constructor
Prog::Prog(long int on1 = 0, long int off1 = 24*60, long int on2 = 0, long int off2 = 0, long int on3 = 0, long int off3 = 0)
    1294:	8f 92       	push	r8
    1296:	9f 92       	push	r9
    1298:	af 92       	push	r10
    129a:	bf 92       	push	r11
    129c:	cf 92       	push	r12
    129e:	df 92       	push	r13
    12a0:	ef 92       	push	r14
    12a2:	ff 92       	push	r15
    12a4:	0f 93       	push	r16
    12a6:	1f 93       	push	r17
    12a8:	cf 93       	push	r28
    12aa:	df 93       	push	r29
    12ac:	cd b7       	in	r28, 0x3d	; 61
    12ae:	de b7       	in	r29, 0x3e	; 62
    12b0:	fc 01       	movw	r30, r24
{
	t1_on = on1;
    12b2:	51 83       	std	Z+1, r21	; 0x01
    12b4:	40 83       	st	Z, r20
	t1_off = off1;
    12b6:	13 83       	std	Z+3, r17	; 0x03
    12b8:	02 83       	std	Z+2, r16	; 0x02
	t2_on = on2;
    12ba:	d5 82       	std	Z+5, r13	; 0x05
    12bc:	c4 82       	std	Z+4, r12	; 0x04
	t2_off = off2;
    12be:	97 82       	std	Z+7, r9	; 0x07
    12c0:	86 82       	std	Z+6, r8	; 0x06
	t3_on = on3;
    12c2:	8f 85       	ldd	r24, Y+15	; 0x0f
    12c4:	98 89       	ldd	r25, Y+16	; 0x10
    12c6:	91 87       	std	Z+9, r25	; 0x09
    12c8:	80 87       	std	Z+8, r24	; 0x08
	t3_off = off3;
    12ca:	ab 89       	ldd	r26, Y+19	; 0x13
    12cc:	bc 89       	ldd	r27, Y+20	; 0x14
    12ce:	b3 87       	std	Z+11, r27	; 0x0b
    12d0:	a2 87       	std	Z+10, r26	; 0x0a
} //Prog
    12d2:	df 91       	pop	r29
    12d4:	cf 91       	pop	r28
    12d6:	1f 91       	pop	r17
    12d8:	0f 91       	pop	r16
    12da:	ff 90       	pop	r15
    12dc:	ef 90       	pop	r14
    12de:	df 90       	pop	r13
    12e0:	cf 90       	pop	r12
    12e2:	bf 90       	pop	r11
    12e4:	af 90       	pop	r10
    12e6:	9f 90       	pop	r9
    12e8:	8f 90       	pop	r8
    12ea:	08 95       	ret

000012ec <_ZN4ProgD1Ev>:

// default destructor
Prog::~Prog()
    12ec:	08 95       	ret

000012ee <_ZN4Prog12SetRoomTemprEff>:
{
} //~Prog


float Prog::SetRoomTempr (float t_room_comfortable, float t_room_eco)
	{
    12ee:	6f 92       	push	r6
    12f0:	7f 92       	push	r7
    12f2:	8f 92       	push	r8
    12f4:	9f 92       	push	r9
    12f6:	af 92       	push	r10
    12f8:	bf 92       	push	r11
    12fa:	cf 92       	push	r12
    12fc:	df 92       	push	r13
    12fe:	ef 92       	push	r14
    1300:	ff 92       	push	r15
    1302:	0f 93       	push	r16
    1304:	1f 93       	push	r17
    1306:	cf 93       	push	r28
    1308:	df 93       	push	r29
    130a:	fc 01       	movw	r30, r24
    130c:	84 2e       	mov	r8, r20
    130e:	95 2e       	mov	r9, r21
    1310:	a6 2e       	mov	r10, r22
    1312:	b7 2e       	mov	r11, r23
    1314:	62 2e       	mov	r6, r18
    1316:	73 2e       	mov	r7, r19
		
		long int minutes = our_time[HOURE]*60 + our_time[MINUTES];
    1318:	c5 e8       	ldi	r28, 0x85	; 133
    131a:	d2 e0       	ldi	r29, 0x02	; 2
    131c:	28 85       	ldd	r18, Y+8	; 0x08
    131e:	39 85       	ldd	r19, Y+9	; 0x09
    1320:	4a 85       	ldd	r20, Y+10	; 0x0a
    1322:	5b 85       	ldd	r21, Y+11	; 0x0b
    1324:	ac e3       	ldi	r26, 0x3C	; 60
    1326:	b0 e0       	ldi	r27, 0x00	; 0
    1328:	0e 94 e0 19 	call	0x33c0	; 0x33c0 <__muluhisi3>
    132c:	cc 80       	ldd	r12, Y+4	; 0x04
    132e:	dd 80       	ldd	r13, Y+5	; 0x05
    1330:	ee 80       	ldd	r14, Y+6	; 0x06
    1332:	ff 80       	ldd	r15, Y+7	; 0x07
    1334:	dc 01       	movw	r26, r24
    1336:	cb 01       	movw	r24, r22
    1338:	8c 0d       	add	r24, r12
    133a:	9d 1d       	adc	r25, r13
    133c:	ae 1d       	adc	r26, r14
    133e:	bf 1d       	adc	r27, r15
		if ( (minutes >= t1_on && minutes < t1_off) || (minutes >= t2_on && minutes < t2_off) || (minutes >= t3_on && minutes < t3_off)  )
    1340:	c0 80       	ld	r12, Z
    1342:	d1 80       	ldd	r13, Z+1	; 0x01
    1344:	0d 2c       	mov	r0, r13
    1346:	00 0c       	add	r0, r0
    1348:	ee 08       	sbc	r14, r14
    134a:	ff 08       	sbc	r15, r15
    134c:	8c 15       	cp	r24, r12
    134e:	9d 05       	cpc	r25, r13
    1350:	ae 05       	cpc	r26, r14
    1352:	bf 05       	cpc	r27, r15
    1354:	5c f0       	brlt	.+22     	; 0x136c <_ZN4Prog12SetRoomTemprEff+0x7e>
    1356:	c2 80       	ldd	r12, Z+2	; 0x02
    1358:	d3 80       	ldd	r13, Z+3	; 0x03
    135a:	0d 2c       	mov	r0, r13
    135c:	00 0c       	add	r0, r0
    135e:	ee 08       	sbc	r14, r14
    1360:	ff 08       	sbc	r15, r15
    1362:	8c 15       	cp	r24, r12
    1364:	9d 05       	cpc	r25, r13
    1366:	ae 05       	cpc	r26, r14
    1368:	bf 05       	cpc	r27, r15
    136a:	8c f1       	brlt	.+98     	; 0x13ce <_ZN4Prog12SetRoomTemprEff+0xe0>
    136c:	c4 80       	ldd	r12, Z+4	; 0x04
    136e:	d5 80       	ldd	r13, Z+5	; 0x05
    1370:	0d 2c       	mov	r0, r13
    1372:	00 0c       	add	r0, r0
    1374:	ee 08       	sbc	r14, r14
    1376:	ff 08       	sbc	r15, r15
    1378:	8c 15       	cp	r24, r12
    137a:	9d 05       	cpc	r25, r13
    137c:	ae 05       	cpc	r26, r14
    137e:	bf 05       	cpc	r27, r15
    1380:	5c f0       	brlt	.+22     	; 0x1398 <_ZN4Prog12SetRoomTemprEff+0xaa>
    1382:	c6 80       	ldd	r12, Z+6	; 0x06
    1384:	d7 80       	ldd	r13, Z+7	; 0x07
    1386:	0d 2c       	mov	r0, r13
    1388:	00 0c       	add	r0, r0
    138a:	ee 08       	sbc	r14, r14
    138c:	ff 08       	sbc	r15, r15
    138e:	8c 15       	cp	r24, r12
    1390:	9d 05       	cpc	r25, r13
    1392:	ae 05       	cpc	r26, r14
    1394:	bf 05       	cpc	r27, r15
    1396:	04 f1       	brlt	.+64     	; 0x13d8 <_ZN4Prog12SetRoomTemprEff+0xea>
    1398:	c0 84       	ldd	r12, Z+8	; 0x08
    139a:	d1 84       	ldd	r13, Z+9	; 0x09
    139c:	0d 2c       	mov	r0, r13
    139e:	00 0c       	add	r0, r0
    13a0:	ee 08       	sbc	r14, r14
    13a2:	ff 08       	sbc	r15, r15
    13a4:	8c 15       	cp	r24, r12
    13a6:	9d 05       	cpc	r25, r13
    13a8:	ae 05       	cpc	r26, r14
    13aa:	bf 05       	cpc	r27, r15
    13ac:	d4 f0       	brlt	.+52     	; 0x13e2 <_ZN4Prog12SetRoomTemprEff+0xf4>
    13ae:	c2 84       	ldd	r12, Z+10	; 0x0a
    13b0:	d3 84       	ldd	r13, Z+11	; 0x0b
    13b2:	0d 2c       	mov	r0, r13
    13b4:	00 0c       	add	r0, r0
    13b6:	ee 08       	sbc	r14, r14
    13b8:	ff 08       	sbc	r15, r15
    13ba:	8c 15       	cp	r24, r12
    13bc:	9d 05       	cpc	r25, r13
    13be:	ae 05       	cpc	r26, r14
    13c0:	bf 05       	cpc	r27, r15
    13c2:	94 f4       	brge	.+36     	; 0x13e8 <_ZN4Prog12SetRoomTemprEff+0xfa>
		{
			return t_room_comfortable;
    13c4:	08 2d       	mov	r16, r8
    13c6:	19 2d       	mov	r17, r9
    13c8:	da 2d       	mov	r29, r10
    13ca:	cb 2d       	mov	r28, r11
    13cc:	0f c0       	rjmp	.+30     	; 0x13ec <_ZN4Prog12SetRoomTemprEff+0xfe>
    13ce:	08 2d       	mov	r16, r8
    13d0:	19 2d       	mov	r17, r9
    13d2:	da 2d       	mov	r29, r10
    13d4:	cb 2d       	mov	r28, r11
    13d6:	0a c0       	rjmp	.+20     	; 0x13ec <_ZN4Prog12SetRoomTemprEff+0xfe>
    13d8:	08 2d       	mov	r16, r8
    13da:	19 2d       	mov	r17, r9
    13dc:	da 2d       	mov	r29, r10
    13de:	cb 2d       	mov	r28, r11
    13e0:	05 c0       	rjmp	.+10     	; 0x13ec <_ZN4Prog12SetRoomTemprEff+0xfe>
		}
		else
		{
			return t_room_eco;
    13e2:	d6 2d       	mov	r29, r6
    13e4:	c7 2d       	mov	r28, r7
    13e6:	02 c0       	rjmp	.+4      	; 0x13ec <_ZN4Prog12SetRoomTemprEff+0xfe>
    13e8:	d6 2d       	mov	r29, r6
    13ea:	c7 2d       	mov	r28, r7
		}
		return t_room_comfortable;
	}
    13ec:	60 2f       	mov	r22, r16
    13ee:	71 2f       	mov	r23, r17
    13f0:	8d 2f       	mov	r24, r29
    13f2:	9c 2f       	mov	r25, r28
    13f4:	df 91       	pop	r29
    13f6:	cf 91       	pop	r28
    13f8:	1f 91       	pop	r17
    13fa:	0f 91       	pop	r16
    13fc:	ff 90       	pop	r15
    13fe:	ef 90       	pop	r14
    1400:	df 90       	pop	r13
    1402:	cf 90       	pop	r12
    1404:	bf 90       	pop	r11
    1406:	af 90       	pop	r10
    1408:	9f 90       	pop	r9
    140a:	8f 90       	pop	r8
    140c:	7f 90       	pop	r7
    140e:	6f 90       	pop	r6
    1410:	08 95       	ret

00001412 <_ZN16repeatingHandlerC1Ev>:

#include "repeatingHandler.h"


// default constructor
repeatingHandler::repeatingHandler()
    1412:	fc 01       	movw	r30, r24
{
	ticks=0;
    1414:	13 82       	std	Z+3, r1	; 0x03
    1416:	12 82       	std	Z+2, r1	; 0x02
	period=0;
    1418:	11 82       	std	Z+1, r1	; 0x01
    141a:	10 82       	st	Z, r1
	perform=false;		
    141c:	14 82       	std	Z+4, r1	; 0x04
    141e:	08 95       	ret

00001420 <_ZN16repeatingHandlerD1Ev>:
} //repeatinghandler

// default destructor
repeatingHandler::~repeatingHandler()
    1420:	08 95       	ret

00001422 <_Z21Timer2Atmega16RTC_iniv>:
	#else
		//round up by default
		__ticks_dc = (uint32_t)(ceil(fabs(__tmp)));
	#endif

	__builtin_avr_delay_cycles(__ticks_dc);
    1422:	2f e7       	ldi	r18, 0x7F	; 127
    1424:	8a e1       	ldi	r24, 0x1A	; 26
    1426:	96 e0       	ldi	r25, 0x06	; 6
    1428:	21 50       	subi	r18, 0x01	; 1
    142a:	80 40       	sbci	r24, 0x00	; 0
    142c:	90 40       	sbci	r25, 0x00	; 0
    142e:	e1 f7       	brne	.-8      	; 0x1428 <_Z21Timer2Atmega16RTC_iniv+0x6>
    1430:	00 c0       	rjmp	.+0      	; 0x1432 <_Z21Timer2Atmega16RTC_iniv+0x10>
    1432:	00 00       	nop

void Timer2Atmega16RTC_ini()
{
	 _delay_ms(500);
	
	ASSR |= (1<<AS2);  // the sorce of clock asynchronos clock from pin
    1434:	82 b5       	in	r24, 0x22	; 34
    1436:	88 60       	ori	r24, 0x08	; 8
    1438:	82 bd       	out	0x22, r24	; 34
	
	TCNT2 = 0x00; //initial value setting up
    143a:	14 bc       	out	0x24, r1	; 36
	/*The Output Compare Register contains an 8-bit value that is continuously compared with the counter value
	(TCNT2). A match can be used to generate an output compare interrupt, or to generate a waveform output on
	the OC2 pin.*/
	TCCR2 = 0x05; //    128. so we get 32.768kHz/128 = 256   
    143c:	85 e0       	ldi	r24, 0x05	; 5
    143e:	85 bd       	out	0x25, r24	; 37
	OCR2  = 0x00;  
    1440:	13 bc       	out	0x23, r1	; 35
	
	//   .
	while (ASSR & ((1<<TCN2UB) | (1<<OCR2UB) | (1<<TCR2UB)));
    1442:	82 b5       	in	r24, 0x22	; 34
    1444:	87 70       	andi	r24, 0x07	; 7
    1446:	e9 f7       	brne	.-6      	; 0x1442 <_Z21Timer2Atmega16RTC_iniv+0x20>

	//     2.
	TIMSK |= (1<<TOIE2);  //enable interrupt when overflow 
    1448:	89 b7       	in	r24, 0x39	; 57
    144a:	80 64       	ori	r24, 0x40	; 64
    144c:	89 bf       	out	0x39, r24	; 57
	//   .
	sei();
    144e:	78 94       	sei
    1450:	08 95       	ret

00001452 <_Z8sleepingv>:



void sleeping (void)
{
	float adc = GetAverageADCValue(2,40, VCC);	
    1452:	41 e0       	ldi	r20, 0x01	; 1
    1454:	68 e2       	ldi	r22, 0x28	; 40
    1456:	82 e0       	ldi	r24, 0x02	; 2
    1458:	0e 94 6e 14 	call	0x28dc	; 0x28dc <_Z18GetAverageADCValuecc4Vref>
	float Vcc = adc*V_BATT_REF/1024;   //    2.56/1024 = 0.0025	
	
	set_sleep_mode(SLEEP_MODE_PWR_SAVE);
    145c:	25 b7       	in	r18, 0x35	; 53
    145e:	2f 74       	andi	r18, 0x4F	; 79
    1460:	20 63       	ori	r18, 0x30	; 48
    1462:	25 bf       	out	0x35, r18	; 53


void sleeping (void)
{
	float adc = GetAverageADCValue(2,40, VCC);	
	float Vcc = adc*V_BATT_REF/1024;   //    2.56/1024 = 0.0025	
    1464:	2a e0       	ldi	r18, 0x0A	; 10
    1466:	37 ed       	ldi	r19, 0xD7	; 215
    1468:	43 e2       	ldi	r20, 0x23	; 35
    146a:	50 e4       	ldi	r21, 0x40	; 64
    146c:	0e 94 5e 19 	call	0x32bc	; 0x32bc <__mulsf3>
    1470:	20 e0       	ldi	r18, 0x00	; 0
    1472:	30 e0       	ldi	r19, 0x00	; 0
    1474:	40 e8       	ldi	r20, 0x80	; 128
    1476:	5a e3       	ldi	r21, 0x3A	; 58
    1478:	0e 94 5e 19 	call	0x32bc	; 0x32bc <__mulsf3>
	
	set_sleep_mode(SLEEP_MODE_PWR_SAVE);
	
	if (Vcc < U_POROGOVE)
    147c:	20 e0       	ldi	r18, 0x00	; 0
    147e:	30 e0       	ldi	r19, 0x00	; 0
    1480:	40 e8       	ldi	r20, 0x80	; 128
    1482:	5f e3       	ldi	r21, 0x3F	; 63
    1484:	0e 94 01 18 	call	0x3002	; 0x3002 <__cmpsf2>
    1488:	88 23       	and	r24, r24
    148a:	0c f0       	brlt	.+2      	; 0x148e <_Z8sleepingv+0x3c>
    148c:	38 c0       	rjmp	.+112    	; 0x14fe <_Z8sleepingv+0xac>
	{	
		
		//disable relays
		StopServo();
    148e:	0e 94 5f 03 	call	0x6be	; 0x6be <_Z9StopServov>
		//disable display
		FullOffIND();
    1492:	0e 94 1d 08 	call	0x103a	; 0x103a <_Z10FullOffINDv>
		TIMSK &= ~(1<<OCIE1A );  //      0   16  
    1496:	89 b7       	in	r24, 0x39	; 57
    1498:	8f 7e       	andi	r24, 0xEF	; 239
    149a:	89 bf       	out	0x39, r24	; 57
		//desable all leds		
		LightOutAll_Leds();				
    149c:	0e 94 9c 08 	call	0x1138	; 0x1138 <_Z16LightOutAll_Ledsv>
		//disable buttons
		Lock_buttons(); 
    14a0:	0e 94 ee 13 	call	0x27dc	; 0x27dc <_Z12Lock_buttonsv>
		//disable display
		
			
		
		cli();
    14a4:	f8 94       	cli
		sleep_enable();			
    14a6:	85 b7       	in	r24, 0x35	; 53
    14a8:	80 64       	ori	r24, 0x40	; 64
    14aa:	85 bf       	out	0x35, r24	; 53
		sei();
    14ac:	78 94       	sei
		sleep_cpu();
    14ae:	88 95       	sleep
		// here we sleep until interrupt				
		sleep_disable();
    14b0:	85 b7       	in	r24, 0x35	; 53
    14b2:	8f 7b       	andi	r24, 0xBF	; 191
    14b4:	85 bf       	out	0x35, r24	; 53
		while ( (V_BATT_REF*GetAverageADCValue(2,40,VCC)/1024) < U_POROGOVE)
    14b6:	08 c0       	rjmp	.+16     	; 0x14c8 <_Z8sleepingv+0x76>
		{
			sleep_enable();
    14b8:	85 b7       	in	r24, 0x35	; 53
    14ba:	80 64       	ori	r24, 0x40	; 64
    14bc:	85 bf       	out	0x35, r24	; 53
			sei();
    14be:	78 94       	sei
			sleep_cpu();
    14c0:	88 95       	sleep
			// here we sleep until interrupt
			sleep_disable();
    14c2:	85 b7       	in	r24, 0x35	; 53
    14c4:	8f 7b       	andi	r24, 0xBF	; 191
    14c6:	85 bf       	out	0x35, r24	; 53
		sleep_enable();			
		sei();
		sleep_cpu();
		// here we sleep until interrupt				
		sleep_disable();
		while ( (V_BATT_REF*GetAverageADCValue(2,40,VCC)/1024) < U_POROGOVE)
    14c8:	41 e0       	ldi	r20, 0x01	; 1
    14ca:	68 e2       	ldi	r22, 0x28	; 40
    14cc:	82 e0       	ldi	r24, 0x02	; 2
    14ce:	0e 94 6e 14 	call	0x28dc	; 0x28dc <_Z18GetAverageADCValuecc4Vref>
    14d2:	2a e0       	ldi	r18, 0x0A	; 10
    14d4:	37 ed       	ldi	r19, 0xD7	; 215
    14d6:	43 e2       	ldi	r20, 0x23	; 35
    14d8:	50 e4       	ldi	r21, 0x40	; 64
    14da:	0e 94 5e 19 	call	0x32bc	; 0x32bc <__mulsf3>
    14de:	20 e0       	ldi	r18, 0x00	; 0
    14e0:	30 e0       	ldi	r19, 0x00	; 0
    14e2:	40 e8       	ldi	r20, 0x80	; 128
    14e4:	5a e3       	ldi	r21, 0x3A	; 58
    14e6:	0e 94 5e 19 	call	0x32bc	; 0x32bc <__mulsf3>
    14ea:	20 e0       	ldi	r18, 0x00	; 0
    14ec:	30 e0       	ldi	r19, 0x00	; 0
    14ee:	40 e8       	ldi	r20, 0x80	; 128
    14f0:	5f e3       	ldi	r21, 0x3F	; 63
    14f2:	0e 94 01 18 	call	0x3002	; 0x3002 <__cmpsf2>
    14f6:	88 23       	and	r24, r24
    14f8:	fc f2       	brlt	.-66     	; 0x14b8 <_Z8sleepingv+0x66>
			sei();
			sleep_cpu();
			// here we sleep until interrupt
			sleep_disable();
		} 
		Total_ini();									
    14fa:	0e 94 8f 08 	call	0x111e	; 0x111e <_Z9Total_iniv>
    14fe:	08 95       	ret

00001500 <_Z16Sounder_port_iniv>:
#include "global_varibals.h"


void Sounder_port_ini (void)
{		
	SOUNDER_PORT &= ~(1<<SOUNDER_PIN);
    1500:	dd 98       	cbi	0x1b, 5	; 27
	SOUNDER_DDR |= (1<<SOUNDER_PIN);
    1502:	d5 9a       	sbi	0x1a, 5	; 26
    1504:	08 95       	ret

00001506 <_Z4Beepv>:
	
}

void Beep (void)
{
    1506:	8c e2       	ldi	r24, 0x2C	; 44
    1508:	91 e0       	ldi	r25, 0x01	; 1
	for (int i=0; i<300; i++)
	{
		SOUNDER_PORT |= (1<<SOUNDER_PIN);
    150a:	dd 9a       	sbi	0x1b, 5	; 27
	#else
		//round up by default
		__ticks_dc = (uint32_t)(ceil(fabs(__tmp)));
	#endif

	__builtin_avr_delay_cycles(__ticks_dc);
    150c:	25 e8       	ldi	r18, 0x85	; 133
    150e:	2a 95       	dec	r18
    1510:	f1 f7       	brne	.-4      	; 0x150e <_Z4Beepv+0x8>
    1512:	00 00       	nop
		_delay_us (100);
		SOUNDER_PORT &= ~(1<<SOUNDER_PIN);
    1514:	dd 98       	cbi	0x1b, 5	; 27
    1516:	2a e6       	ldi	r18, 0x6A	; 106
    1518:	2a 95       	dec	r18
    151a:	f1 f7       	brne	.-4      	; 0x1518 <_Z4Beepv+0x12>
    151c:	00 c0       	rjmp	.+0      	; 0x151e <_Z4Beepv+0x18>
    151e:	01 97       	sbiw	r24, 0x01	; 1
	
}

void Beep (void)
{
	for (int i=0; i<300; i++)
    1520:	a1 f7       	brne	.-24     	; 0x150a <_Z4Beepv+0x4>
		SOUNDER_PORT |= (1<<SOUNDER_PIN);
		_delay_us (100);
		SOUNDER_PORT &= ~(1<<SOUNDER_PIN);
		_delay_us(80);
	}
    1522:	08 95       	ret

00001524 <main>:
repeatingHandler checkSeason;

int main (void)
{
	
    Total_ini();
    1524:	0e 94 8f 08 	call	0x111e	; 0x111e <_Z9Total_iniv>
	{		
		if (period==0)
		{
			return false;  // out if period =0; don't repeat at all	
		}		
		if (perform==false)	
    1528:	0f 2e       	mov	r0, r31
    152a:	f6 e9       	ldi	r31, 0x96	; 150
    152c:	6f 2e       	mov	r6, r31
    152e:	f3 e0       	ldi	r31, 0x03	; 3
    1530:	7f 2e       	mov	r7, r31
    1532:	f0 2d       	mov	r31, r0
		{
			perform = true;		
    1534:	33 24       	eor	r3, r3
    1536:	33 94       	inc	r3
	{		
		if (period==0)
		{
			return false;  // out if period =0; don't repeat at all	
		}		
		if (perform==false)	
    1538:	0f 2e       	mov	r0, r31
    153a:	ff ea       	ldi	r31, 0xAF	; 175
    153c:	8f 2e       	mov	r8, r31
    153e:	f3 e0       	ldi	r31, 0x03	; 3
    1540:	9f 2e       	mov	r9, r31
    1542:	f0 2d       	mov	r31, r0
    1544:	c5 ea       	ldi	r28, 0xA5	; 165
    1546:	d3 e0       	ldi	r29, 0x03	; 3
    1548:	0f 2e       	mov	r0, r31
    154a:	f0 ea       	ldi	r31, 0xA0	; 160
    154c:	4f 2e       	mov	r4, r31
    154e:	f3 e0       	ldi	r31, 0x03	; 3
    1550:	5f 2e       	mov	r5, r31
    1552:	f0 2d       	mov	r31, r0
			
	while (1)
	{
		// DOING WITH BUTTONS
		Buttons_qustioning();					
    1554:	0e 94 d2 13 	call	0x27a4	; 0x27a4 <_Z18Buttons_qustioningv>
	
		//DOING WHITH POWER IF LESS THEN 1.5v IT POINTS THAt WE SHODE POWER SAVE MODE
		sleeping ();
    1558:	0e 94 29 0a 	call	0x1452	; 0x1452 <_Z8sleepingv>
    155c:	f3 01       	movw	r30, r6
    155e:	84 81       	ldd	r24, Z+4	; 0x04
    1560:	81 11       	cpse	r24, r1
    1562:	04 c0       	rjmp	.+8      	; 0x156c <main+0x48>
		{
			perform = true;		
    1564:	34 82       	std	Z+4, r3	; 0x04
			ticks = 0;
    1566:	13 82       	std	Z+3, r1	; 0x03
    1568:	12 82       	std	Z+2, r1	; 0x02
    156a:	25 c0       	rjmp	.+74     	; 0x15b6 <main+0x92>
			return false;								
		}		
		
		if (perform==true)
		{
			if (ticks>=period)
    156c:	f3 01       	movw	r30, r6
    156e:	82 81       	ldd	r24, Z+2	; 0x02
    1570:	93 81       	ldd	r25, Z+3	; 0x03
    1572:	84 3c       	cpi	r24, 0xC4	; 196
    1574:	99 40       	sbci	r25, 0x09	; 9
    1576:	f8 f0       	brcs	.+62     	; 0x15b6 <main+0x92>
			{
				perform = false;
    1578:	f3 01       	movw	r30, r6
    157a:	14 82       	std	Z+4, r1	; 0x04
		  
	 	// GET THE OUTSIDE TEMPERATURE        
	   if (t_out.repeat(2500)) //   .   2.5 . 
		{
			t_outside_G = GetSensor(OUTSIDE_SENSOR,t_outsidecor_G);					
    157c:	40 91 bc 03 	lds	r20, 0x03BC
    1580:	50 91 bd 03 	lds	r21, 0x03BD
    1584:	60 91 be 03 	lds	r22, 0x03BE
    1588:	70 91 bf 03 	lds	r23, 0x03BF
    158c:	80 e0       	ldi	r24, 0x00	; 0
    158e:	0e 94 f1 15 	call	0x2be2	; 0x2be2 <_Z9GetSensorcf>
    1592:	60 93 c0 03 	sts	0x03C0, r22
    1596:	70 93 c1 03 	sts	0x03C1, r23
    159a:	80 93 c2 03 	sts	0x03C2, r24
    159e:	90 93 c3 03 	sts	0x03C3, r25
			sensorErr (t_flow_G);
    15a2:	60 91 b2 00 	lds	r22, 0x00B2
    15a6:	70 91 b3 00 	lds	r23, 0x00B3
    15aa:	80 91 b4 00 	lds	r24, 0x00B4
    15ae:	90 91 b5 00 	lds	r25, 0x00B5
    15b2:	0e 94 24 16 	call	0x2c48	; 0x2c48 <_Z9sensorErrf>
	{		
		if (period==0)
		{
			return false;  // out if period =0; don't repeat at all	
		}		
		if (perform==false)	
    15b6:	f4 01       	movw	r30, r8
    15b8:	84 81       	ldd	r24, Z+4	; 0x04
    15ba:	81 11       	cpse	r24, r1
    15bc:	04 c0       	rjmp	.+8      	; 0x15c6 <main+0xa2>
		{
			perform = true;		
    15be:	34 82       	std	Z+4, r3	; 0x04
			ticks = 0;
    15c0:	13 82       	std	Z+3, r1	; 0x03
    15c2:	12 82       	std	Z+2, r1	; 0x02
    15c4:	1d c0       	rjmp	.+58     	; 0x1600 <main+0xdc>
			return false;								
		}		
		
		if (perform==true)
		{
			if (ticks>=period)
    15c6:	f4 01       	movw	r30, r8
    15c8:	82 81       	ldd	r24, Z+2	; 0x02
    15ca:	93 81       	ldd	r25, Z+3	; 0x03
    15cc:	8c 3d       	cpi	r24, 0xDC	; 220
    15ce:	95 40       	sbci	r25, 0x05	; 5
    15d0:	b8 f0       	brcs	.+46     	; 0x1600 <main+0xdc>
			{
				perform = false;
    15d2:	f4 01       	movw	r30, r8
    15d4:	14 82       	std	Z+4, r1	; 0x04
		
		// GET THE FLOW TEMPERATURE
        if (t_flow.repeat(1500)) //   .   1,5  . 
		{
			
			t_flow_G = GetSensor(FLOW_SENSOR,t_flowcor_G);
    15d6:	40 91 b8 03 	lds	r20, 0x03B8
    15da:	50 91 b9 03 	lds	r21, 0x03B9
    15de:	60 91 ba 03 	lds	r22, 0x03BA
    15e2:	70 91 bb 03 	lds	r23, 0x03BB
    15e6:	83 2d       	mov	r24, r3
    15e8:	0e 94 f1 15 	call	0x2be2	; 0x2be2 <_Z9GetSensorcf>
    15ec:	60 93 b2 00 	sts	0x00B2, r22
    15f0:	70 93 b3 00 	sts	0x00B3, r23
    15f4:	80 93 b4 00 	sts	0x00B4, r24
    15f8:	90 93 b5 00 	sts	0x00B5, r25
			sensorErr (t_flow_G); 
    15fc:	0e 94 24 16 	call	0x2c48	; 0x2c48 <_Z9sensorErrf>
		}
		
		
		// CALCULATE SIGNAL DURATION FOR SERVO AND RUN THE SERVO
        if (PID.repeat(PIDperiod_G)) //     . 
    1600:	80 91 98 00 	lds	r24, 0x0098
    1604:	90 91 99 00 	lds	r25, 0x0099
	repeatingHandler();	
	~repeatingHandler();
		
	bool repeat (uint16_t period)
	{		
		if (period==0)
    1608:	00 97       	sbiw	r24, 0x00	; 0
    160a:	09 f4       	brne	.+2      	; 0x160e <main+0xea>
    160c:	9f c0       	rjmp	.+318    	; 0x174c <main+0x228>
		{
			return false;  // out if period =0; don't repeat at all	
		}		
		if (perform==false)	
    160e:	20 91 ae 03 	lds	r18, 0x03AE
    1612:	21 11       	cpse	r18, r1
    1614:	07 c0       	rjmp	.+14     	; 0x1624 <main+0x100>
		{
			perform = true;		
    1616:	30 92 ae 03 	sts	0x03AE, r3
			ticks = 0;
    161a:	10 92 ad 03 	sts	0x03AD, r1
    161e:	10 92 ac 03 	sts	0x03AC, r1
    1622:	94 c0       	rjmp	.+296    	; 0x174c <main+0x228>
			return false;								
		}		
		
		if (perform==true)
		{
			if (ticks>=period)
    1624:	20 91 ac 03 	lds	r18, 0x03AC
    1628:	30 91 ad 03 	lds	r19, 0x03AD
    162c:	28 17       	cp	r18, r24
    162e:	39 07       	cpc	r19, r25
    1630:	08 f4       	brcc	.+2      	; 0x1634 <main+0x110>
    1632:	8c c0       	rjmp	.+280    	; 0x174c <main+0x228>
			{
				perform = false;
    1634:	10 92 ae 03 	sts	0x03AE, r1
		{
			//calculate a temperature correction regarding to week program 
			float t_room = GetRoomTemp (our_time[WEEKDAY], t_room_comfortable_G, t_room_eco_G);
    1638:	e0 90 9e 00 	lds	r14, 0x009E
    163c:	f0 90 9f 00 	lds	r15, 0x009F
    1640:	00 91 a0 00 	lds	r16, 0x00A0
    1644:	10 91 a1 00 	lds	r17, 0x00A1
    1648:	20 91 a2 00 	lds	r18, 0x00A2
    164c:	30 91 a3 00 	lds	r19, 0x00A3
    1650:	40 91 a4 00 	lds	r20, 0x00A4
    1654:	50 91 a5 00 	lds	r21, 0x00A5
    1658:	60 91 91 02 	lds	r22, 0x0291
    165c:	70 91 92 02 	lds	r23, 0x0292
    1660:	80 91 93 02 	lds	r24, 0x0293
    1664:	90 91 94 02 	lds	r25, 0x0294
    1668:	0e 94 99 01 	call	0x332	; 0x332 <_Z11GetRoomTemplff>
    166c:	7b 01       	movw	r14, r22
    166e:	8c 01       	movw	r16, r24
			
			//    			
			t_flow_setpoint_G = GetFlowTemperatureFromCurve (t_outside_G, heating_curve_G, t_room, tflow_max_G, tflow_min_G);
    1670:	a0 90 aa 00 	lds	r10, 0x00AA
    1674:	b0 90 ab 00 	lds	r11, 0x00AB
    1678:	c0 90 ac 00 	lds	r12, 0x00AC
    167c:	d0 90 ad 00 	lds	r13, 0x00AD
    1680:	20 91 77 00 	lds	r18, 0x0077
    1684:	30 91 78 00 	lds	r19, 0x0078
    1688:	40 91 79 00 	lds	r20, 0x0079
    168c:	50 91 7a 00 	lds	r21, 0x007A
    1690:	60 91 c0 03 	lds	r22, 0x03C0
    1694:	70 91 c1 03 	lds	r23, 0x03C1
    1698:	80 91 c2 03 	lds	r24, 0x03C2
    169c:	90 91 c3 03 	lds	r25, 0x03C3
    16a0:	e0 91 a9 00 	lds	r30, 0x00A9
    16a4:	ef 93       	push	r30
    16a6:	e0 91 a8 00 	lds	r30, 0x00A8
    16aa:	ef 93       	push	r30
    16ac:	e0 91 a7 00 	lds	r30, 0x00A7
    16b0:	ef 93       	push	r30
    16b2:	e0 91 a6 00 	lds	r30, 0x00A6
    16b6:	ef 93       	push	r30
    16b8:	0e 94 07 02 	call	0x40e	; 0x40e <_Z27GetFlowTemperatureFromCurvefffff>
    16bc:	60 93 ae 00 	sts	0x00AE, r22
    16c0:	70 93 af 00 	sts	0x00AF, r23
    16c4:	80 93 b0 00 	sts	0x00B0, r24
    16c8:	90 93 b1 00 	sts	0x00B1, r25
			
			// ϲ 
			float PID_signal = PID_regulator (t_flow_setpoint_G,  t_flow_G, Kp_G, Ki_G, Kd_G);
    16cc:	a0 90 6f 00 	lds	r10, 0x006F
    16d0:	b0 90 70 00 	lds	r11, 0x0070
    16d4:	c0 90 71 00 	lds	r12, 0x0071
    16d8:	d0 90 72 00 	lds	r13, 0x0072
    16dc:	e0 90 73 00 	lds	r14, 0x0073
    16e0:	f0 90 74 00 	lds	r15, 0x0074
    16e4:	00 91 75 00 	lds	r16, 0x0075
    16e8:	10 91 76 00 	lds	r17, 0x0076
    16ec:	20 91 b2 00 	lds	r18, 0x00B2
    16f0:	30 91 b3 00 	lds	r19, 0x00B3
    16f4:	40 91 b4 00 	lds	r20, 0x00B4
    16f8:	50 91 b5 00 	lds	r21, 0x00B5
    16fc:	e0 91 6e 00 	lds	r30, 0x006E
    1700:	ef 93       	push	r30
    1702:	e0 91 6d 00 	lds	r30, 0x006D
    1706:	ef 93       	push	r30
    1708:	e0 91 6c 00 	lds	r30, 0x006C
    170c:	ef 93       	push	r30
    170e:	e0 91 6b 00 	lds	r30, 0x006B
    1712:	ef 93       	push	r30
    1714:	0e 94 87 02 	call	0x50e	; 0x50e <_Z13PID_regulatorfffff>
			
			//   
			impulse_for_servo_G = ServoControl  (PID_signal, servo_period_G);			
    1718:	20 91 9a 00 	lds	r18, 0x009A
    171c:	30 91 9b 00 	lds	r19, 0x009B
    1720:	40 91 9c 00 	lds	r20, 0x009C
    1724:	50 91 9d 00 	lds	r21, 0x009D
    1728:	0e 94 68 03 	call	0x6d0	; 0x6d0 <_Z12ServoControlff>
    172c:	60 93 b4 03 	sts	0x03B4, r22
    1730:	70 93 b5 03 	sts	0x03B5, r23
    1734:	80 93 b6 03 	sts	0x03B6, r24
    1738:	90 93 b7 03 	sts	0x03B7, r25
    173c:	8d b7       	in	r24, 0x3d	; 61
    173e:	9e b7       	in	r25, 0x3e	; 62
    1740:	08 96       	adiw	r24, 0x08	; 8
    1742:	0f b6       	in	r0, 0x3f	; 63
    1744:	f8 94       	cli
    1746:	9e bf       	out	0x3e, r25	; 62
    1748:	0f be       	out	0x3f, r0	; 63
    174a:	8d bf       	out	0x3d, r24	; 61
		} 
		
		
		// HERE WE CONTROL THE SERVO TO STOP IN TIME
		InterruptingServo (impulse_for_servo_G);
    174c:	60 91 b4 03 	lds	r22, 0x03B4
    1750:	70 91 b5 03 	lds	r23, 0x03B5
    1754:	80 91 b6 03 	lds	r24, 0x03B6
    1758:	90 91 b7 03 	lds	r25, 0x03B7
    175c:	0e 94 e7 03 	call	0x7ce	; 0x7ce <_Z17InterruptingServof>
	{		
		if (period==0)
		{
			return false;  // out if period =0; don't repeat at all	
		}		
		if (perform==false)	
    1760:	8c 81       	ldd	r24, Y+4	; 0x04
    1762:	81 11       	cpse	r24, r1
    1764:	04 c0       	rjmp	.+8      	; 0x176e <main+0x24a>
		{
			perform = true;		
    1766:	3c 82       	std	Y+4, r3	; 0x04
			ticks = 0;
    1768:	1b 82       	std	Y+3, r1	; 0x03
    176a:	1a 82       	std	Y+2, r1	; 0x02
    176c:	08 c0       	rjmp	.+16     	; 0x177e <main+0x25a>
			return false;								
		}		
		
		if (perform==true)
		{
			if (ticks>=period)
    176e:	8a 81       	ldd	r24, Y+2	; 0x02
    1770:	9b 81       	ldd	r25, Y+3	; 0x03
    1772:	88 38       	cpi	r24, 0x88	; 136
    1774:	93 41       	sbci	r25, 0x13	; 19
    1776:	18 f0       	brcs	.+6      	; 0x177e <main+0x25a>
			{
				perform = false;
    1778:	1c 82       	std	Y+4, r1	; 0x04
		
		//DISPLAY
		
		if (displayRenew.repeat(5000))
		{
		  RenewScreen();						
    177a:	0e 94 fe 0f 	call	0x1ffc	; 0x1ffc <_Z11RenewScreenv>
	{		
		if (period==0)
		{
			return false;  // out if period =0; don't repeat at all	
		}		
		if (perform==false)	
    177e:	f2 01       	movw	r30, r4
    1780:	84 81       	ldd	r24, Z+4	; 0x04
    1782:	81 11       	cpse	r24, r1
    1784:	04 c0       	rjmp	.+8      	; 0x178e <main+0x26a>
		{
			perform = true;		
    1786:	34 82       	std	Z+4, r3	; 0x04
			ticks = 0;
    1788:	13 82       	std	Z+3, r1	; 0x03
    178a:	12 82       	std	Z+2, r1	; 0x02
    178c:	0b c0       	rjmp	.+22     	; 0x17a4 <main+0x280>
			return false;								
		}		
		
		if (perform==true)
		{
			if (ticks>=period)
    178e:	f2 01       	movw	r30, r4
    1790:	82 81       	ldd	r24, Z+2	; 0x02
    1792:	93 81       	ldd	r25, Z+3	; 0x03
    1794:	88 37       	cpi	r24, 0x78	; 120
    1796:	91 05       	cpc	r25, r1
    1798:	28 f0       	brcs	.+10     	; 0x17a4 <main+0x280>
			{
				perform = false;
    179a:	14 82       	std	Z+4, r1	; 0x04
		}
				//
		// DOING WITH LEDS
		if (leds.repeat(120))
		{			
			LightUpLed(chosen_led_G);			
    179c:	80 91 ba 00 	lds	r24, 0x00BA
    17a0:	0e 94 ab 08 	call	0x1156	; 0x1156 <_Z10LightUpLed7led_num>
	{		
		if (period==0)
		{
			return false;  // out if period =0; don't repeat at all	
		}		
		if (perform==false)	
    17a4:	80 91 95 03 	lds	r24, 0x0395
    17a8:	81 11       	cpse	r24, r1
    17aa:	07 c0       	rjmp	.+14     	; 0x17ba <main+0x296>
		{
			perform = true;		
    17ac:	30 92 95 03 	sts	0x0395, r3
			ticks = 0;
    17b0:	10 92 94 03 	sts	0x0394, r1
    17b4:	10 92 93 03 	sts	0x0393, r1
    17b8:	cd ce       	rjmp	.-614    	; 0x1554 <main+0x30>
			return false;								
		}		
		
		if (perform==true)
		{
			if (ticks>=period)
    17ba:	80 91 93 03 	lds	r24, 0x0393
    17be:	90 91 94 03 	lds	r25, 0x0394
    17c2:	80 3e       	cpi	r24, 0xE0	; 224
    17c4:	9e 42       	sbci	r25, 0x2E	; 46
    17c6:	08 f4       	brcc	.+2      	; 0x17ca <main+0x2a6>
    17c8:	c5 ce       	rjmp	.-630    	; 0x1554 <main+0x30>
			{
				perform = false;
    17ca:	10 92 95 03 	sts	0x0395, r1
		}		
		//Checking out the season change
		if (checkSeason.repeat(12000))
		{
			checkSummerWinter(t_outside_G, t_outS_W);
    17ce:	20 91 b6 00 	lds	r18, 0x00B6
    17d2:	30 91 b7 00 	lds	r19, 0x00B7
    17d6:	40 91 b8 00 	lds	r20, 0x00B8
    17da:	50 91 b9 00 	lds	r21, 0x00B9
    17de:	60 91 c0 03 	lds	r22, 0x03C0
    17e2:	70 91 c1 03 	lds	r23, 0x03C1
    17e6:	80 91 c2 03 	lds	r24, 0x03C2
    17ea:	90 91 c3 03 	lds	r25, 0x03C3
    17ee:	0e 94 87 04 	call	0x90e	; 0x90e <_Z17checkSummerWinterff>
    17f2:	b0 ce       	rjmp	.-672    	; 0x1554 <main+0x30>

000017f4 <__vector_6>:


#define TICKS_ms 4
// 	  1 16bit
ISR ( TIMER1_COMPA_vect)   //every 4ms
{		
    17f4:	1f 92       	push	r1
    17f6:	0f 92       	push	r0
    17f8:	0f b6       	in	r0, 0x3f	; 63
    17fa:	0f 92       	push	r0
    17fc:	11 24       	eor	r1, r1
    17fe:	2f 93       	push	r18
    1800:	3f 93       	push	r19
    1802:	4f 93       	push	r20
    1804:	5f 93       	push	r21
    1806:	6f 93       	push	r22
    1808:	7f 93       	push	r23
    180a:	8f 93       	push	r24
    180c:	9f 93       	push	r25
    180e:	af 93       	push	r26
    1810:	bf 93       	push	r27
    1812:	ef 93       	push	r30
    1814:	ff 93       	push	r31
	t_out.ticks+=TICKS_ms;
    1816:	e6 e9       	ldi	r30, 0x96	; 150
    1818:	f3 e0       	ldi	r31, 0x03	; 3
    181a:	82 81       	ldd	r24, Z+2	; 0x02
    181c:	93 81       	ldd	r25, Z+3	; 0x03
    181e:	04 96       	adiw	r24, 0x04	; 4
    1820:	93 83       	std	Z+3, r25	; 0x03
    1822:	82 83       	std	Z+2, r24	; 0x02
	switches_ask.ticks+=TICKS_ms;  
    1824:	eb e9       	ldi	r30, 0x9B	; 155
    1826:	f3 e0       	ldi	r31, 0x03	; 3
    1828:	82 81       	ldd	r24, Z+2	; 0x02
    182a:	93 81       	ldd	r25, Z+3	; 0x03
    182c:	04 96       	adiw	r24, 0x04	; 4
    182e:	93 83       	std	Z+3, r25	; 0x03
    1830:	82 83       	std	Z+2, r24	; 0x02
    t_flow.ticks+=TICKS_ms;
    1832:	ef ea       	ldi	r30, 0xAF	; 175
    1834:	f3 e0       	ldi	r31, 0x03	; 3
    1836:	82 81       	ldd	r24, Z+2	; 0x02
    1838:	93 81       	ldd	r25, Z+3	; 0x03
    183a:	04 96       	adiw	r24, 0x04	; 4
    183c:	93 83       	std	Z+3, r25	; 0x03
    183e:	82 83       	std	Z+2, r24	; 0x02
    PID.ticks+=TICKS_ms;
    1840:	ea ea       	ldi	r30, 0xAA	; 170
    1842:	f3 e0       	ldi	r31, 0x03	; 3
    1844:	82 81       	ldd	r24, Z+2	; 0x02
    1846:	93 81       	ldd	r25, Z+3	; 0x03
    1848:	04 96       	adiw	r24, 0x04	; 4
    184a:	93 83       	std	Z+3, r25	; 0x03
    184c:	82 83       	std	Z+2, r24	; 0x02
    blickOn.ticks+=TICKS_ms;
    184e:	e0 e8       	ldi	r30, 0x80	; 128
    1850:	f3 e0       	ldi	r31, 0x03	; 3
    1852:	82 81       	ldd	r24, Z+2	; 0x02
    1854:	93 81       	ldd	r25, Z+3	; 0x03
    1856:	04 96       	adiw	r24, 0x04	; 4
    1858:	93 83       	std	Z+3, r25	; 0x03
    185a:	82 83       	std	Z+2, r24	; 0x02
    blickOff.ticks+=TICKS_ms;
    185c:	eb e7       	ldi	r30, 0x7B	; 123
    185e:	f3 e0       	ldi	r31, 0x03	; 3
    1860:	82 81       	ldd	r24, Z+2	; 0x02
    1862:	93 81       	ldd	r25, Z+3	; 0x03
    1864:	04 96       	adiw	r24, 0x04	; 4
    1866:	93 83       	std	Z+3, r25	; 0x03
    1868:	82 83       	std	Z+2, r24	; 0x02
    displayRenew.ticks+=TICKS_ms;
    186a:	e5 ea       	ldi	r30, 0xA5	; 165
    186c:	f3 e0       	ldi	r31, 0x03	; 3
    186e:	82 81       	ldd	r24, Z+2	; 0x02
    1870:	93 81       	ldd	r25, Z+3	; 0x03
    1872:	04 96       	adiw	r24, 0x04	; 4
    1874:	93 83       	std	Z+3, r25	; 0x03
    1876:	82 83       	std	Z+2, r24	; 0x02
	leds.ticks+=TICKS_ms;
    1878:	e0 ea       	ldi	r30, 0xA0	; 160
    187a:	f3 e0       	ldi	r31, 0x03	; 3
    187c:	82 81       	ldd	r24, Z+2	; 0x02
    187e:	93 81       	ldd	r25, Z+3	; 0x03
    1880:	04 96       	adiw	r24, 0x04	; 4
    1882:	93 83       	std	Z+3, r25	; 0x03
    1884:	82 83       	std	Z+2, r24	; 0x02
	servo.ticks+=TICKS_ms;
    1886:	e8 e0       	ldi	r30, 0x08	; 8
    1888:	f3 e0       	ldi	r31, 0x03	; 3
    188a:	82 81       	ldd	r24, Z+2	; 0x02
    188c:	93 81       	ldd	r25, Z+3	; 0x03
    188e:	04 96       	adiw	r24, 0x04	; 4
    1890:	93 83       	std	Z+3, r25	; 0x03
    1892:	82 83       	std	Z+2, r24	; 0x02
	sw_button_action.ticks+=TICKS_ms;
    1894:	ea ec       	ldi	r30, 0xCA	; 202
    1896:	f3 e0       	ldi	r31, 0x03	; 3
    1898:	82 81       	ldd	r24, Z+2	; 0x02
    189a:	93 81       	ldd	r25, Z+3	; 0x03
    189c:	04 96       	adiw	r24, 0x04	; 4
    189e:	93 83       	std	Z+3, r25	; 0x03
    18a0:	82 83       	std	Z+2, r24	; 0x02
	
	if (blick_screen_G) IND_Upd_bliks();// if the flag "blick_screen" is on    
    18a2:	80 91 85 03 	lds	r24, 0x0385
    18a6:	88 23       	and	r24, r24
    18a8:	19 f0       	breq	.+6      	; 0x18b0 <__vector_6+0xbc>
    18aa:	0e 94 45 08 	call	0x108a	; 0x108a <_Z13IND_Upd_bliksv>
    18ae:	02 c0       	rjmp	.+4      	; 0x18b4 <__vector_6+0xc0>
	else IND_Update(); 	 // update display		
    18b0:	0e 94 22 08 	call	0x1044	; 0x1044 <_Z10IND_Updatev>
	
}
    18b4:	ff 91       	pop	r31
    18b6:	ef 91       	pop	r30
    18b8:	bf 91       	pop	r27
    18ba:	af 91       	pop	r26
    18bc:	9f 91       	pop	r25
    18be:	8f 91       	pop	r24
    18c0:	7f 91       	pop	r23
    18c2:	6f 91       	pop	r22
    18c4:	5f 91       	pop	r21
    18c6:	4f 91       	pop	r20
    18c8:	3f 91       	pop	r19
    18ca:	2f 91       	pop	r18
    18cc:	0f 90       	pop	r0
    18ce:	0f be       	out	0x3f, r0	; 63
    18d0:	0f 90       	pop	r0
    18d2:	1f 90       	pop	r1
    18d4:	18 95       	reti

000018d6 <__vector_2>:


// the interrupt for the buttons

ISR (INT1_vect)
{	
    18d6:	1f 92       	push	r1
    18d8:	0f 92       	push	r0
    18da:	0f b6       	in	r0, 0x3f	; 63
    18dc:	0f 92       	push	r0
    18de:	11 24       	eor	r1, r1
	//GICR &= ~(1 << INT1);  		
	//button_G = PRESSED;		
}
    18e0:	0f 90       	pop	r0
    18e2:	0f be       	out	0x3f, r0	; 63
    18e4:	0f 90       	pop	r0
    18e6:	1f 90       	pop	r1
    18e8:	18 95       	reti

000018ea <__vector_4>:


ISR (TIMER2_OVF_vect)
{
    18ea:	1f 92       	push	r1
    18ec:	0f 92       	push	r0
    18ee:	0f b6       	in	r0, 0x3f	; 63
    18f0:	0f 92       	push	r0
    18f2:	11 24       	eor	r1, r1
    18f4:	2f 93       	push	r18
    18f6:	3f 93       	push	r19
    18f8:	4f 93       	push	r20
    18fa:	5f 93       	push	r21
    18fc:	6f 93       	push	r22
    18fe:	7f 93       	push	r23
    1900:	8f 93       	push	r24
    1902:	9f 93       	push	r25
    1904:	af 93       	push	r26
    1906:	bf 93       	push	r27
    1908:	ef 93       	push	r30
    190a:	ff 93       	push	r31
	ClockTick ();
    190c:	0e 94 55 16 	call	0x2caa	; 0x2caa <_Z9ClockTickv>
    1910:	ff 91       	pop	r31
    1912:	ef 91       	pop	r30
    1914:	bf 91       	pop	r27
    1916:	af 91       	pop	r26
    1918:	9f 91       	pop	r25
    191a:	8f 91       	pop	r24
    191c:	7f 91       	pop	r23
    191e:	6f 91       	pop	r22
    1920:	5f 91       	pop	r21
    1922:	4f 91       	pop	r20
    1924:	3f 91       	pop	r19
    1926:	2f 91       	pop	r18
    1928:	0f 90       	pop	r0
    192a:	0f be       	out	0x3f, r0	; 63
    192c:	0f 90       	pop	r0
    192e:	1f 90       	pop	r1
    1930:	18 95       	reti

00001932 <_GLOBAL__sub_I_t_outside_G>:
float t_room_eco_G = 17; 			//  
float servo_period_G = 60000;  //       
uint16_t PIDperiod_G =PID_PERIOD;
ButtonValues button_G = UNPRESSED;  //

repeatingHandler t_flow;
    1932:	8f ea       	ldi	r24, 0xAF	; 175
    1934:	93 e0       	ldi	r25, 0x03	; 3
    1936:	0e 94 09 0a 	call	0x1412	; 0x1412 <_ZN16repeatingHandlerC1Ev>
repeatingHandler PID;
    193a:	8a ea       	ldi	r24, 0xAA	; 170
    193c:	93 e0       	ldi	r25, 0x03	; 3
    193e:	0e 94 09 0a 	call	0x1412	; 0x1412 <_ZN16repeatingHandlerC1Ev>
repeatingHandler displayRenew;
    1942:	85 ea       	ldi	r24, 0xA5	; 165
    1944:	93 e0       	ldi	r25, 0x03	; 3
    1946:	0e 94 09 0a 	call	0x1412	; 0x1412 <_ZN16repeatingHandlerC1Ev>
repeatingHandler leds;
    194a:	80 ea       	ldi	r24, 0xA0	; 160
    194c:	93 e0       	ldi	r25, 0x03	; 3
    194e:	0e 94 09 0a 	call	0x1412	; 0x1412 <_ZN16repeatingHandlerC1Ev>
repeatingHandler switches_ask;
    1952:	8b e9       	ldi	r24, 0x9B	; 155
    1954:	93 e0       	ldi	r25, 0x03	; 3
    1956:	0e 94 09 0a 	call	0x1412	; 0x1412 <_ZN16repeatingHandlerC1Ev>
repeatingHandler t_out;
    195a:	86 e9       	ldi	r24, 0x96	; 150
    195c:	93 e0       	ldi	r25, 0x03	; 3
    195e:	0e 94 09 0a 	call	0x1412	; 0x1412 <_ZN16repeatingHandlerC1Ev>
repeatingHandler checkSeason;
    1962:	81 e9       	ldi	r24, 0x91	; 145
    1964:	93 e0       	ldi	r25, 0x03	; 3
    1966:	0e 94 09 0a 	call	0x1412	; 0x1412 <_ZN16repeatingHandlerC1Ev>
    196a:	08 95       	ret

0000196c <_GLOBAL__sub_D_t_outside_G>:
    196c:	81 e9       	ldi	r24, 0x91	; 145
    196e:	93 e0       	ldi	r25, 0x03	; 3
    1970:	0e 94 10 0a 	call	0x1420	; 0x1420 <_ZN16repeatingHandlerD1Ev>
repeatingHandler t_flow;
repeatingHandler PID;
repeatingHandler displayRenew;
repeatingHandler leds;
repeatingHandler switches_ask;
repeatingHandler t_out;
    1974:	86 e9       	ldi	r24, 0x96	; 150
    1976:	93 e0       	ldi	r25, 0x03	; 3
    1978:	0e 94 10 0a 	call	0x1420	; 0x1420 <_ZN16repeatingHandlerD1Ev>

repeatingHandler t_flow;
repeatingHandler PID;
repeatingHandler displayRenew;
repeatingHandler leds;
repeatingHandler switches_ask;
    197c:	8b e9       	ldi	r24, 0x9B	; 155
    197e:	93 e0       	ldi	r25, 0x03	; 3
    1980:	0e 94 10 0a 	call	0x1420	; 0x1420 <_ZN16repeatingHandlerD1Ev>
ButtonValues button_G = UNPRESSED;  //

repeatingHandler t_flow;
repeatingHandler PID;
repeatingHandler displayRenew;
repeatingHandler leds;
    1984:	80 ea       	ldi	r24, 0xA0	; 160
    1986:	93 e0       	ldi	r25, 0x03	; 3
    1988:	0e 94 10 0a 	call	0x1420	; 0x1420 <_ZN16repeatingHandlerD1Ev>
uint16_t PIDperiod_G =PID_PERIOD;
ButtonValues button_G = UNPRESSED;  //

repeatingHandler t_flow;
repeatingHandler PID;
repeatingHandler displayRenew;
    198c:	85 ea       	ldi	r24, 0xA5	; 165
    198e:	93 e0       	ldi	r25, 0x03	; 3
    1990:	0e 94 10 0a 	call	0x1420	; 0x1420 <_ZN16repeatingHandlerD1Ev>
float servo_period_G = 60000;  //       
uint16_t PIDperiod_G =PID_PERIOD;
ButtonValues button_G = UNPRESSED;  //

repeatingHandler t_flow;
repeatingHandler PID;
    1994:	8a ea       	ldi	r24, 0xAA	; 170
    1996:	93 e0       	ldi	r25, 0x03	; 3
    1998:	0e 94 10 0a 	call	0x1420	; 0x1420 <_ZN16repeatingHandlerD1Ev>
float t_room_eco_G = 17; 			//  
float servo_period_G = 60000;  //       
uint16_t PIDperiod_G =PID_PERIOD;
ButtonValues button_G = UNPRESSED;  //

repeatingHandler t_flow;
    199c:	8f ea       	ldi	r24, 0xAF	; 175
    199e:	93 e0       	ldi	r25, 0x03	; 3
    19a0:	0e 94 10 0a 	call	0x1420	; 0x1420 <_ZN16repeatingHandlerD1Ev>
    19a4:	08 95       	ret

000019a6 <_Z8Menu_Iniv>:
menuItem *selectedMenuItem;
                               
// ініціалізація меню
void Menu_Ini(void)
{
	selectedMenuItem = &m_4;			
    19a6:	81 ef       	ldi	r24, 0xF1	; 241
    19a8:	91 e0       	ldi	r25, 0x01	; 1
    19aa:	90 93 c6 03 	sts	0x03C6, r25
    19ae:	80 93 c5 03 	sts	0x03C5, r24
    19b2:	08 95       	ret

000019b4 <_Z7Editing9Parameteri>:

// this function is called out when +/- buttons are pressed and we are in the editing mode (the editing mode appears when "Enter" has been pressed)
// the_parameter - what parameter is going to be edited
// the sign - what the button has been pressed + or - (1 or -1 when multiplying)
void Editing (Parameter the_edited_parameter, int the_sign)
{
    19b4:	cf 92       	push	r12
    19b6:	df 92       	push	r13
    19b8:	ef 92       	push	r14
    19ba:	ff 92       	push	r15
    19bc:	0f 93       	push	r16
    19be:	1f 93       	push	r17
		  	  
	switch (the_edited_parameter)
    19c0:	90 e0       	ldi	r25, 0x00	; 0
    19c2:	fc 01       	movw	r30, r24
    19c4:	32 97       	sbiw	r30, 0x02	; 2
    19c6:	e3 32       	cpi	r30, 0x23	; 35
    19c8:	f1 05       	cpc	r31, r1
    19ca:	08 f0       	brcs	.+2      	; 0x19ce <_Z7Editing9Parameteri+0x1a>
    19cc:	c1 c2       	rjmp	.+1410   	; 0x1f50 <_Z7Editing9Parameteri+0x59c>
    19ce:	e7 51       	subi	r30, 0x17	; 23
    19d0:	ff 4f       	sbci	r31, 0xFF	; 255
    19d2:	0c 94 cb 19 	jmp	0x3396	; 0x3396 <__tablejump2__>
	{
		 case T_KOMF_:  // the room temperature set comfortable
		 t_room_comfortable_G += the_sign * 0.5;
    19d6:	07 2e       	mov	r0, r23
    19d8:	00 0c       	add	r0, r0
    19da:	88 0b       	sbc	r24, r24
    19dc:	99 0b       	sbc	r25, r25
    19de:	0e 94 a9 18 	call	0x3152	; 0x3152 <__floatsisf>
    19e2:	20 e0       	ldi	r18, 0x00	; 0
    19e4:	30 e0       	ldi	r19, 0x00	; 0
    19e6:	40 e0       	ldi	r20, 0x00	; 0
    19e8:	5f e3       	ldi	r21, 0x3F	; 63
    19ea:	0e 94 5e 19 	call	0x32bc	; 0x32bc <__mulsf3>
    19ee:	20 91 a2 00 	lds	r18, 0x00A2
    19f2:	30 91 a3 00 	lds	r19, 0x00A3
    19f6:	40 91 a4 00 	lds	r20, 0x00A4
    19fa:	50 91 a5 00 	lds	r21, 0x00A5
    19fe:	0e 94 95 17 	call	0x2f2a	; 0x2f2a <__addsf3>
    1a02:	6b 01       	movw	r12, r22
    1a04:	7c 01       	movw	r14, r24
    1a06:	60 93 a2 00 	sts	0x00A2, r22
    1a0a:	70 93 a3 00 	sts	0x00A3, r23
    1a0e:	80 93 a4 00 	sts	0x00A4, r24
    1a12:	90 93 a5 00 	sts	0x00A5, r25
		 if (t_room_comfortable_G>=38 ) t_room_comfortable_G = 38;
    1a16:	20 e0       	ldi	r18, 0x00	; 0
    1a18:	30 e0       	ldi	r19, 0x00	; 0
    1a1a:	48 e1       	ldi	r20, 0x18	; 24
    1a1c:	52 e4       	ldi	r21, 0x42	; 66
    1a1e:	0e 94 59 19 	call	0x32b2	; 0x32b2 <__gesf2>
    1a22:	88 23       	and	r24, r24
    1a24:	6c f0       	brlt	.+26     	; 0x1a40 <_Z7Editing9Parameteri+0x8c>
    1a26:	80 e0       	ldi	r24, 0x00	; 0
    1a28:	90 e0       	ldi	r25, 0x00	; 0
    1a2a:	a8 e1       	ldi	r26, 0x18	; 24
    1a2c:	b2 e4       	ldi	r27, 0x42	; 66
    1a2e:	80 93 a2 00 	sts	0x00A2, r24
    1a32:	90 93 a3 00 	sts	0x00A3, r25
    1a36:	a0 93 a4 00 	sts	0x00A4, r26
    1a3a:	b0 93 a5 00 	sts	0x00A5, r27
    1a3e:	88 c2       	rjmp	.+1296   	; 0x1f50 <_Z7Editing9Parameteri+0x59c>
		 if (t_room_comfortable_G<=2) t_room_comfortable_G = 2;
    1a40:	20 e0       	ldi	r18, 0x00	; 0
    1a42:	30 e0       	ldi	r19, 0x00	; 0
    1a44:	40 e0       	ldi	r20, 0x00	; 0
    1a46:	50 e4       	ldi	r21, 0x40	; 64
    1a48:	c7 01       	movw	r24, r14
    1a4a:	b6 01       	movw	r22, r12
    1a4c:	0e 94 01 18 	call	0x3002	; 0x3002 <__cmpsf2>
    1a50:	18 16       	cp	r1, r24
    1a52:	0c f4       	brge	.+2      	; 0x1a56 <_Z7Editing9Parameteri+0xa2>
    1a54:	7d c2       	rjmp	.+1274   	; 0x1f50 <_Z7Editing9Parameteri+0x59c>
    1a56:	80 e0       	ldi	r24, 0x00	; 0
    1a58:	90 e0       	ldi	r25, 0x00	; 0
    1a5a:	a0 e0       	ldi	r26, 0x00	; 0
    1a5c:	b0 e4       	ldi	r27, 0x40	; 64
    1a5e:	80 93 a2 00 	sts	0x00A2, r24
    1a62:	90 93 a3 00 	sts	0x00A3, r25
    1a66:	a0 93 a4 00 	sts	0x00A4, r26
    1a6a:	b0 93 a5 00 	sts	0x00A5, r27
    1a6e:	70 c2       	rjmp	.+1248   	; 0x1f50 <_Z7Editing9Parameteri+0x59c>
		 break;
		 		 		 
		 case T_ECO_:
		 t_room_eco_G += 0.5*the_sign;
    1a70:	07 2e       	mov	r0, r23
    1a72:	00 0c       	add	r0, r0
    1a74:	88 0b       	sbc	r24, r24
    1a76:	99 0b       	sbc	r25, r25
    1a78:	0e 94 a9 18 	call	0x3152	; 0x3152 <__floatsisf>
    1a7c:	20 e0       	ldi	r18, 0x00	; 0
    1a7e:	30 e0       	ldi	r19, 0x00	; 0
    1a80:	40 e0       	ldi	r20, 0x00	; 0
    1a82:	5f e3       	ldi	r21, 0x3F	; 63
    1a84:	0e 94 5e 19 	call	0x32bc	; 0x32bc <__mulsf3>
    1a88:	20 91 9e 00 	lds	r18, 0x009E
    1a8c:	30 91 9f 00 	lds	r19, 0x009F
    1a90:	40 91 a0 00 	lds	r20, 0x00A0
    1a94:	50 91 a1 00 	lds	r21, 0x00A1
    1a98:	0e 94 95 17 	call	0x2f2a	; 0x2f2a <__addsf3>
    1a9c:	6b 01       	movw	r12, r22
    1a9e:	7c 01       	movw	r14, r24
    1aa0:	60 93 9e 00 	sts	0x009E, r22
    1aa4:	70 93 9f 00 	sts	0x009F, r23
    1aa8:	80 93 a0 00 	sts	0x00A0, r24
    1aac:	90 93 a1 00 	sts	0x00A1, r25
		 if (t_room_eco_G>=38 ) t_room_eco_G = 38;
    1ab0:	20 e0       	ldi	r18, 0x00	; 0
    1ab2:	30 e0       	ldi	r19, 0x00	; 0
    1ab4:	48 e1       	ldi	r20, 0x18	; 24
    1ab6:	52 e4       	ldi	r21, 0x42	; 66
    1ab8:	0e 94 59 19 	call	0x32b2	; 0x32b2 <__gesf2>
    1abc:	88 23       	and	r24, r24
    1abe:	6c f0       	brlt	.+26     	; 0x1ada <_Z7Editing9Parameteri+0x126>
    1ac0:	80 e0       	ldi	r24, 0x00	; 0
    1ac2:	90 e0       	ldi	r25, 0x00	; 0
    1ac4:	a8 e1       	ldi	r26, 0x18	; 24
    1ac6:	b2 e4       	ldi	r27, 0x42	; 66
    1ac8:	80 93 9e 00 	sts	0x009E, r24
    1acc:	90 93 9f 00 	sts	0x009F, r25
    1ad0:	a0 93 a0 00 	sts	0x00A0, r26
    1ad4:	b0 93 a1 00 	sts	0x00A1, r27
    1ad8:	3b c2       	rjmp	.+1142   	; 0x1f50 <_Z7Editing9Parameteri+0x59c>
		 if (t_room_eco_G<=2) t_room_eco_G = 2;
    1ada:	20 e0       	ldi	r18, 0x00	; 0
    1adc:	30 e0       	ldi	r19, 0x00	; 0
    1ade:	40 e0       	ldi	r20, 0x00	; 0
    1ae0:	50 e4       	ldi	r21, 0x40	; 64
    1ae2:	c7 01       	movw	r24, r14
    1ae4:	b6 01       	movw	r22, r12
    1ae6:	0e 94 01 18 	call	0x3002	; 0x3002 <__cmpsf2>
    1aea:	18 16       	cp	r1, r24
    1aec:	0c f4       	brge	.+2      	; 0x1af0 <_Z7Editing9Parameteri+0x13c>
    1aee:	30 c2       	rjmp	.+1120   	; 0x1f50 <_Z7Editing9Parameteri+0x59c>
    1af0:	80 e0       	ldi	r24, 0x00	; 0
    1af2:	90 e0       	ldi	r25, 0x00	; 0
    1af4:	a0 e0       	ldi	r26, 0x00	; 0
    1af6:	b0 e4       	ldi	r27, 0x40	; 64
    1af8:	80 93 9e 00 	sts	0x009E, r24
    1afc:	90 93 9f 00 	sts	0x009F, r25
    1b00:	a0 93 a0 00 	sts	0x00A0, r26
    1b04:	b0 93 a1 00 	sts	0x00A1, r27
    1b08:	23 c2       	rjmp	.+1094   	; 0x1f50 <_Z7Editing9Parameteri+0x59c>
		 break;					 		 
		 
		 case T_SET:
		 t_flow_setpoint_G += 0.5*the_sign;
    1b0a:	07 2e       	mov	r0, r23
    1b0c:	00 0c       	add	r0, r0
    1b0e:	88 0b       	sbc	r24, r24
    1b10:	99 0b       	sbc	r25, r25
    1b12:	0e 94 a9 18 	call	0x3152	; 0x3152 <__floatsisf>
    1b16:	20 e0       	ldi	r18, 0x00	; 0
    1b18:	30 e0       	ldi	r19, 0x00	; 0
    1b1a:	40 e0       	ldi	r20, 0x00	; 0
    1b1c:	5f e3       	ldi	r21, 0x3F	; 63
    1b1e:	0e 94 5e 19 	call	0x32bc	; 0x32bc <__mulsf3>
    1b22:	9b 01       	movw	r18, r22
    1b24:	ac 01       	movw	r20, r24
    1b26:	60 91 ae 00 	lds	r22, 0x00AE
    1b2a:	70 91 af 00 	lds	r23, 0x00AF
    1b2e:	80 91 b0 00 	lds	r24, 0x00B0
    1b32:	90 91 b1 00 	lds	r25, 0x00B1
    1b36:	0e 94 95 17 	call	0x2f2a	; 0x2f2a <__addsf3>
    1b3a:	60 93 ae 00 	sts	0x00AE, r22
    1b3e:	70 93 af 00 	sts	0x00AF, r23
    1b42:	80 93 b0 00 	sts	0x00B0, r24
    1b46:	90 93 b1 00 	sts	0x00B1, r25
		 break;			 		
    1b4a:	02 c2       	rjmp	.+1028   	; 0x1f50 <_Z7Editing9Parameteri+0x59c>
		 
		 case MO_P:
		 day_prog[0] = ChangeProg(0,day_prog,the_sign);
    1b4c:	46 2f       	mov	r20, r22
    1b4e:	64 e6       	ldi	r22, 0x64	; 100
    1b50:	70 e0       	ldi	r23, 0x00	; 0
    1b52:	80 e0       	ldi	r24, 0x00	; 0
    1b54:	90 e0       	ldi	r25, 0x00	; 0
    1b56:	0e 94 62 01 	call	0x2c4	; 0x2c4 <_Z10ChangeProgiP9program_tc>
    1b5a:	80 93 64 00 	sts	0x0064, r24
		 break;
    1b5e:	f8 c1       	rjmp	.+1008   	; 0x1f50 <_Z7Editing9Parameteri+0x59c>
		 
		 case TU_P:
		 day_prog[1] = ChangeProg(1,day_prog,the_sign);
    1b60:	46 2f       	mov	r20, r22
    1b62:	64 e6       	ldi	r22, 0x64	; 100
    1b64:	70 e0       	ldi	r23, 0x00	; 0
    1b66:	81 e0       	ldi	r24, 0x01	; 1
    1b68:	90 e0       	ldi	r25, 0x00	; 0
    1b6a:	0e 94 62 01 	call	0x2c4	; 0x2c4 <_Z10ChangeProgiP9program_tc>
    1b6e:	80 93 65 00 	sts	0x0065, r24
		 break;
    1b72:	ee c1       	rjmp	.+988    	; 0x1f50 <_Z7Editing9Parameteri+0x59c>
		 
		 case WE_P:
		 day_prog[2] = ChangeProg(2,day_prog,the_sign);
    1b74:	46 2f       	mov	r20, r22
    1b76:	64 e6       	ldi	r22, 0x64	; 100
    1b78:	70 e0       	ldi	r23, 0x00	; 0
    1b7a:	82 e0       	ldi	r24, 0x02	; 2
    1b7c:	90 e0       	ldi	r25, 0x00	; 0
    1b7e:	0e 94 62 01 	call	0x2c4	; 0x2c4 <_Z10ChangeProgiP9program_tc>
    1b82:	80 93 66 00 	sts	0x0066, r24
		 break;
    1b86:	e4 c1       	rjmp	.+968    	; 0x1f50 <_Z7Editing9Parameteri+0x59c>
		 
		 case TH_P:
		 day_prog[3] = ChangeProg(3,day_prog,the_sign);
    1b88:	46 2f       	mov	r20, r22
    1b8a:	64 e6       	ldi	r22, 0x64	; 100
    1b8c:	70 e0       	ldi	r23, 0x00	; 0
    1b8e:	83 e0       	ldi	r24, 0x03	; 3
    1b90:	90 e0       	ldi	r25, 0x00	; 0
    1b92:	0e 94 62 01 	call	0x2c4	; 0x2c4 <_Z10ChangeProgiP9program_tc>
    1b96:	80 93 67 00 	sts	0x0067, r24
		 break;
    1b9a:	da c1       	rjmp	.+948    	; 0x1f50 <_Z7Editing9Parameteri+0x59c>
		 
		 case FR_P:
		 day_prog[4] = ChangeProg(4,day_prog,the_sign);
    1b9c:	46 2f       	mov	r20, r22
    1b9e:	64 e6       	ldi	r22, 0x64	; 100
    1ba0:	70 e0       	ldi	r23, 0x00	; 0
    1ba2:	84 e0       	ldi	r24, 0x04	; 4
    1ba4:	90 e0       	ldi	r25, 0x00	; 0
    1ba6:	0e 94 62 01 	call	0x2c4	; 0x2c4 <_Z10ChangeProgiP9program_tc>
    1baa:	80 93 68 00 	sts	0x0068, r24
		 break;
    1bae:	d0 c1       	rjmp	.+928    	; 0x1f50 <_Z7Editing9Parameteri+0x59c>
		 
		 case SA_P:
		 day_prog[5] = ChangeProg(5,day_prog,the_sign);
    1bb0:	46 2f       	mov	r20, r22
    1bb2:	64 e6       	ldi	r22, 0x64	; 100
    1bb4:	70 e0       	ldi	r23, 0x00	; 0
    1bb6:	85 e0       	ldi	r24, 0x05	; 5
    1bb8:	90 e0       	ldi	r25, 0x00	; 0
    1bba:	0e 94 62 01 	call	0x2c4	; 0x2c4 <_Z10ChangeProgiP9program_tc>
    1bbe:	80 93 69 00 	sts	0x0069, r24
		 break;
    1bc2:	c6 c1       	rjmp	.+908    	; 0x1f50 <_Z7Editing9Parameteri+0x59c>
		 
		 case SU_P:
		 day_prog[6] = ChangeProg(6,day_prog,the_sign);
    1bc4:	46 2f       	mov	r20, r22
    1bc6:	64 e6       	ldi	r22, 0x64	; 100
    1bc8:	70 e0       	ldi	r23, 0x00	; 0
    1bca:	86 e0       	ldi	r24, 0x06	; 6
    1bcc:	90 e0       	ldi	r25, 0x00	; 0
    1bce:	0e 94 62 01 	call	0x2c4	; 0x2c4 <_Z10ChangeProgiP9program_tc>
    1bd2:	80 93 6a 00 	sts	0x006A, r24
		 break;
    1bd6:	bc c1       	rjmp	.+888    	; 0x1f50 <_Z7Editing9Parameteri+0x59c>
		 
		 case CURVE_:
		 heating_curve_G += 0.1*the_sign; 
    1bd8:	07 2e       	mov	r0, r23
    1bda:	00 0c       	add	r0, r0
    1bdc:	88 0b       	sbc	r24, r24
    1bde:	99 0b       	sbc	r25, r25
    1be0:	0e 94 a9 18 	call	0x3152	; 0x3152 <__floatsisf>
    1be4:	2d ec       	ldi	r18, 0xCD	; 205
    1be6:	3c ec       	ldi	r19, 0xCC	; 204
    1be8:	4c ec       	ldi	r20, 0xCC	; 204
    1bea:	5d e3       	ldi	r21, 0x3D	; 61
    1bec:	0e 94 5e 19 	call	0x32bc	; 0x32bc <__mulsf3>
    1bf0:	20 91 77 00 	lds	r18, 0x0077
    1bf4:	30 91 78 00 	lds	r19, 0x0078
    1bf8:	40 91 79 00 	lds	r20, 0x0079
    1bfc:	50 91 7a 00 	lds	r21, 0x007A
    1c00:	0e 94 95 17 	call	0x2f2a	; 0x2f2a <__addsf3>
    1c04:	6b 01       	movw	r12, r22
    1c06:	7c 01       	movw	r14, r24
    1c08:	60 93 77 00 	sts	0x0077, r22
    1c0c:	70 93 78 00 	sts	0x0078, r23
    1c10:	80 93 79 00 	sts	0x0079, r24
    1c14:	90 93 7a 00 	sts	0x007A, r25
		 if (heating_curve_G>7) heating_curve_G=7;
    1c18:	20 e0       	ldi	r18, 0x00	; 0
    1c1a:	30 e0       	ldi	r19, 0x00	; 0
    1c1c:	40 ee       	ldi	r20, 0xE0	; 224
    1c1e:	50 e4       	ldi	r21, 0x40	; 64
    1c20:	0e 94 59 19 	call	0x32b2	; 0x32b2 <__gesf2>
    1c24:	18 16       	cp	r1, r24
    1c26:	6c f4       	brge	.+26     	; 0x1c42 <_Z7Editing9Parameteri+0x28e>
    1c28:	80 e0       	ldi	r24, 0x00	; 0
    1c2a:	90 e0       	ldi	r25, 0x00	; 0
    1c2c:	a0 ee       	ldi	r26, 0xE0	; 224
    1c2e:	b0 e4       	ldi	r27, 0x40	; 64
    1c30:	80 93 77 00 	sts	0x0077, r24
    1c34:	90 93 78 00 	sts	0x0078, r25
    1c38:	a0 93 79 00 	sts	0x0079, r26
    1c3c:	b0 93 7a 00 	sts	0x007A, r27
    1c40:	87 c1       	rjmp	.+782    	; 0x1f50 <_Z7Editing9Parameteri+0x59c>
		 if (heating_curve_G<0.5) heating_curve_G = 0.5;
    1c42:	20 e0       	ldi	r18, 0x00	; 0
    1c44:	30 e0       	ldi	r19, 0x00	; 0
    1c46:	40 e0       	ldi	r20, 0x00	; 0
    1c48:	5f e3       	ldi	r21, 0x3F	; 63
    1c4a:	c7 01       	movw	r24, r14
    1c4c:	b6 01       	movw	r22, r12
    1c4e:	0e 94 01 18 	call	0x3002	; 0x3002 <__cmpsf2>
    1c52:	88 23       	and	r24, r24
    1c54:	0c f0       	brlt	.+2      	; 0x1c58 <_Z7Editing9Parameteri+0x2a4>
    1c56:	7c c1       	rjmp	.+760    	; 0x1f50 <_Z7Editing9Parameteri+0x59c>
    1c58:	80 e0       	ldi	r24, 0x00	; 0
    1c5a:	90 e0       	ldi	r25, 0x00	; 0
    1c5c:	a0 e0       	ldi	r26, 0x00	; 0
    1c5e:	bf e3       	ldi	r27, 0x3F	; 63
    1c60:	80 93 77 00 	sts	0x0077, r24
    1c64:	90 93 78 00 	sts	0x0078, r25
    1c68:	a0 93 79 00 	sts	0x0079, r26
    1c6c:	b0 93 7a 00 	sts	0x007A, r27
    1c70:	6f c1       	rjmp	.+734    	; 0x1f50 <_Z7Editing9Parameteri+0x59c>
		 case SERVO_:
		 servo_period_G += 1000*the_sign;
		 break;
		 */
		 case P_:
		 Kp_G += 1*the_sign;
    1c72:	07 2e       	mov	r0, r23
    1c74:	00 0c       	add	r0, r0
    1c76:	88 0b       	sbc	r24, r24
    1c78:	99 0b       	sbc	r25, r25
    1c7a:	0e 94 a9 18 	call	0x3152	; 0x3152 <__floatsisf>
    1c7e:	20 91 73 00 	lds	r18, 0x0073
    1c82:	30 91 74 00 	lds	r19, 0x0074
    1c86:	40 91 75 00 	lds	r20, 0x0075
    1c8a:	50 91 76 00 	lds	r21, 0x0076
    1c8e:	0e 94 95 17 	call	0x2f2a	; 0x2f2a <__addsf3>
    1c92:	6b 01       	movw	r12, r22
    1c94:	7c 01       	movw	r14, r24
    1c96:	60 93 73 00 	sts	0x0073, r22
    1c9a:	70 93 74 00 	sts	0x0074, r23
    1c9e:	80 93 75 00 	sts	0x0075, r24
    1ca2:	90 93 76 00 	sts	0x0076, r25
		 if(Kp_G>1000) Kp_G=1000;
    1ca6:	20 e0       	ldi	r18, 0x00	; 0
    1ca8:	30 e0       	ldi	r19, 0x00	; 0
    1caa:	4a e7       	ldi	r20, 0x7A	; 122
    1cac:	54 e4       	ldi	r21, 0x44	; 68
    1cae:	0e 94 59 19 	call	0x32b2	; 0x32b2 <__gesf2>
    1cb2:	18 16       	cp	r1, r24
    1cb4:	6c f4       	brge	.+26     	; 0x1cd0 <_Z7Editing9Parameteri+0x31c>
    1cb6:	80 e0       	ldi	r24, 0x00	; 0
    1cb8:	90 e0       	ldi	r25, 0x00	; 0
    1cba:	aa e7       	ldi	r26, 0x7A	; 122
    1cbc:	b4 e4       	ldi	r27, 0x44	; 68
    1cbe:	80 93 73 00 	sts	0x0073, r24
    1cc2:	90 93 74 00 	sts	0x0074, r25
    1cc6:	a0 93 75 00 	sts	0x0075, r26
    1cca:	b0 93 76 00 	sts	0x0076, r27
    1cce:	40 c1       	rjmp	.+640    	; 0x1f50 <_Z7Editing9Parameteri+0x59c>
		 if (Kp_G<0) Kp_G=0;		 
    1cd0:	20 e0       	ldi	r18, 0x00	; 0
    1cd2:	30 e0       	ldi	r19, 0x00	; 0
    1cd4:	a9 01       	movw	r20, r18
    1cd6:	c7 01       	movw	r24, r14
    1cd8:	b6 01       	movw	r22, r12
    1cda:	0e 94 01 18 	call	0x3002	; 0x3002 <__cmpsf2>
    1cde:	88 23       	and	r24, r24
    1ce0:	0c f0       	brlt	.+2      	; 0x1ce4 <_Z7Editing9Parameteri+0x330>
    1ce2:	36 c1       	rjmp	.+620    	; 0x1f50 <_Z7Editing9Parameteri+0x59c>
    1ce4:	10 92 73 00 	sts	0x0073, r1
    1ce8:	10 92 74 00 	sts	0x0074, r1
    1cec:	10 92 75 00 	sts	0x0075, r1
    1cf0:	10 92 76 00 	sts	0x0076, r1
    1cf4:	2d c1       	rjmp	.+602    	; 0x1f50 <_Z7Editing9Parameteri+0x59c>
		 break;
		 
		 case I_:
		 Ki_G += 1*the_sign;		 
    1cf6:	07 2e       	mov	r0, r23
    1cf8:	00 0c       	add	r0, r0
    1cfa:	88 0b       	sbc	r24, r24
    1cfc:	99 0b       	sbc	r25, r25
    1cfe:	0e 94 a9 18 	call	0x3152	; 0x3152 <__floatsisf>
    1d02:	20 91 6f 00 	lds	r18, 0x006F
    1d06:	30 91 70 00 	lds	r19, 0x0070
    1d0a:	40 91 71 00 	lds	r20, 0x0071
    1d0e:	50 91 72 00 	lds	r21, 0x0072
    1d12:	0e 94 95 17 	call	0x2f2a	; 0x2f2a <__addsf3>
    1d16:	6b 01       	movw	r12, r22
    1d18:	7c 01       	movw	r14, r24
    1d1a:	60 93 6f 00 	sts	0x006F, r22
    1d1e:	70 93 70 00 	sts	0x0070, r23
    1d22:	80 93 71 00 	sts	0x0071, r24
    1d26:	90 93 72 00 	sts	0x0072, r25
		 if (Ki_G>1000) Ki_G=1000;
    1d2a:	20 e0       	ldi	r18, 0x00	; 0
    1d2c:	30 e0       	ldi	r19, 0x00	; 0
    1d2e:	4a e7       	ldi	r20, 0x7A	; 122
    1d30:	54 e4       	ldi	r21, 0x44	; 68
    1d32:	0e 94 59 19 	call	0x32b2	; 0x32b2 <__gesf2>
    1d36:	18 16       	cp	r1, r24
    1d38:	6c f4       	brge	.+26     	; 0x1d54 <_Z7Editing9Parameteri+0x3a0>
    1d3a:	80 e0       	ldi	r24, 0x00	; 0
    1d3c:	90 e0       	ldi	r25, 0x00	; 0
    1d3e:	aa e7       	ldi	r26, 0x7A	; 122
    1d40:	b4 e4       	ldi	r27, 0x44	; 68
    1d42:	80 93 6f 00 	sts	0x006F, r24
    1d46:	90 93 70 00 	sts	0x0070, r25
    1d4a:	a0 93 71 00 	sts	0x0071, r26
    1d4e:	b0 93 72 00 	sts	0x0072, r27
    1d52:	fe c0       	rjmp	.+508    	; 0x1f50 <_Z7Editing9Parameteri+0x59c>
		 if (Ki_G<0) Ki_G = 0;
    1d54:	20 e0       	ldi	r18, 0x00	; 0
    1d56:	30 e0       	ldi	r19, 0x00	; 0
    1d58:	a9 01       	movw	r20, r18
    1d5a:	c7 01       	movw	r24, r14
    1d5c:	b6 01       	movw	r22, r12
    1d5e:	0e 94 01 18 	call	0x3002	; 0x3002 <__cmpsf2>
    1d62:	88 23       	and	r24, r24
    1d64:	0c f0       	brlt	.+2      	; 0x1d68 <_Z7Editing9Parameteri+0x3b4>
    1d66:	f4 c0       	rjmp	.+488    	; 0x1f50 <_Z7Editing9Parameteri+0x59c>
    1d68:	10 92 6f 00 	sts	0x006F, r1
    1d6c:	10 92 70 00 	sts	0x0070, r1
    1d70:	10 92 71 00 	sts	0x0071, r1
    1d74:	10 92 72 00 	sts	0x0072, r1
    1d78:	eb c0       	rjmp	.+470    	; 0x1f50 <_Z7Editing9Parameteri+0x59c>
		 break;
		 
		 case D_:
		 Kd_G += 1*the_sign;	
    1d7a:	07 2e       	mov	r0, r23
    1d7c:	00 0c       	add	r0, r0
    1d7e:	88 0b       	sbc	r24, r24
    1d80:	99 0b       	sbc	r25, r25
    1d82:	0e 94 a9 18 	call	0x3152	; 0x3152 <__floatsisf>
    1d86:	20 91 6b 00 	lds	r18, 0x006B
    1d8a:	30 91 6c 00 	lds	r19, 0x006C
    1d8e:	40 91 6d 00 	lds	r20, 0x006D
    1d92:	50 91 6e 00 	lds	r21, 0x006E
    1d96:	0e 94 95 17 	call	0x2f2a	; 0x2f2a <__addsf3>
    1d9a:	6b 01       	movw	r12, r22
    1d9c:	7c 01       	movw	r14, r24
    1d9e:	60 93 6b 00 	sts	0x006B, r22
    1da2:	70 93 6c 00 	sts	0x006C, r23
    1da6:	80 93 6d 00 	sts	0x006D, r24
    1daa:	90 93 6e 00 	sts	0x006E, r25
		 if (Kd_G>1000) Kd_G=1000;
    1dae:	20 e0       	ldi	r18, 0x00	; 0
    1db0:	30 e0       	ldi	r19, 0x00	; 0
    1db2:	4a e7       	ldi	r20, 0x7A	; 122
    1db4:	54 e4       	ldi	r21, 0x44	; 68
    1db6:	0e 94 59 19 	call	0x32b2	; 0x32b2 <__gesf2>
    1dba:	18 16       	cp	r1, r24
    1dbc:	6c f4       	brge	.+26     	; 0x1dd8 <_Z7Editing9Parameteri+0x424>
    1dbe:	80 e0       	ldi	r24, 0x00	; 0
    1dc0:	90 e0       	ldi	r25, 0x00	; 0
    1dc2:	aa e7       	ldi	r26, 0x7A	; 122
    1dc4:	b4 e4       	ldi	r27, 0x44	; 68
    1dc6:	80 93 6b 00 	sts	0x006B, r24
    1dca:	90 93 6c 00 	sts	0x006C, r25
    1dce:	a0 93 6d 00 	sts	0x006D, r26
    1dd2:	b0 93 6e 00 	sts	0x006E, r27
    1dd6:	bc c0       	rjmp	.+376    	; 0x1f50 <_Z7Editing9Parameteri+0x59c>
		 if (Kd_G<0) Kd_G = 0;		 
    1dd8:	20 e0       	ldi	r18, 0x00	; 0
    1dda:	30 e0       	ldi	r19, 0x00	; 0
    1ddc:	a9 01       	movw	r20, r18
    1dde:	c7 01       	movw	r24, r14
    1de0:	b6 01       	movw	r22, r12
    1de2:	0e 94 01 18 	call	0x3002	; 0x3002 <__cmpsf2>
    1de6:	88 23       	and	r24, r24
    1de8:	0c f0       	brlt	.+2      	; 0x1dec <_Z7Editing9Parameteri+0x438>
    1dea:	b2 c0       	rjmp	.+356    	; 0x1f50 <_Z7Editing9Parameteri+0x59c>
    1dec:	10 92 6b 00 	sts	0x006B, r1
    1df0:	10 92 6c 00 	sts	0x006C, r1
    1df4:	10 92 6d 00 	sts	0x006D, r1
    1df8:	10 92 6e 00 	sts	0x006E, r1
    1dfc:	a9 c0       	rjmp	.+338    	; 0x1f50 <_Z7Editing9Parameteri+0x59c>
		 break;
		 
		 case TIME_:
		 our_time[MINUTES]+=1*the_sign;
    1dfe:	cb 01       	movw	r24, r22
    1e00:	77 0f       	add	r23, r23
    1e02:	aa 0b       	sbc	r26, r26
    1e04:	bb 0b       	sbc	r27, r27
    1e06:	00 91 89 02 	lds	r16, 0x0289
    1e0a:	10 91 8a 02 	lds	r17, 0x028A
    1e0e:	20 91 8b 02 	lds	r18, 0x028B
    1e12:	30 91 8c 02 	lds	r19, 0x028C
    1e16:	80 0f       	add	r24, r16
    1e18:	91 1f       	adc	r25, r17
    1e1a:	a2 1f       	adc	r26, r18
    1e1c:	b3 1f       	adc	r27, r19
		 if (our_time[MINUTES]>=60)
    1e1e:	8c 33       	cpi	r24, 0x3C	; 60
    1e20:	91 05       	cpc	r25, r1
    1e22:	a1 05       	cpc	r26, r1
    1e24:	b1 05       	cpc	r27, r1
    1e26:	4c f4       	brge	.+18     	; 0x1e3a <_Z7Editing9Parameteri+0x486>
		 if (Kd_G>1000) Kd_G=1000;
		 if (Kd_G<0) Kd_G = 0;		 
		 break;
		 
		 case TIME_:
		 our_time[MINUTES]+=1*the_sign;
    1e28:	80 93 89 02 	sts	0x0289, r24
    1e2c:	90 93 8a 02 	sts	0x028A, r25
    1e30:	a0 93 8b 02 	sts	0x028B, r26
    1e34:	b0 93 8c 02 	sts	0x028C, r27
    1e38:	11 c0       	rjmp	.+34     	; 0x1e5c <_Z7Editing9Parameteri+0x4a8>
		 if (our_time[MINUTES]>=60)
		 {
		  our_time[MINUTES]=0;
    1e3a:	e5 e8       	ldi	r30, 0x85	; 133
    1e3c:	f2 e0       	ldi	r31, 0x02	; 2
    1e3e:	14 82       	std	Z+4, r1	; 0x04
    1e40:	15 82       	std	Z+5, r1	; 0x05
    1e42:	16 82       	std	Z+6, r1	; 0x06
    1e44:	17 82       	std	Z+7, r1	; 0x07
		  our_time[HOURE]++;
    1e46:	80 85       	ldd	r24, Z+8	; 0x08
    1e48:	91 85       	ldd	r25, Z+9	; 0x09
    1e4a:	a2 85       	ldd	r26, Z+10	; 0x0a
    1e4c:	b3 85       	ldd	r27, Z+11	; 0x0b
    1e4e:	01 96       	adiw	r24, 0x01	; 1
    1e50:	a1 1d       	adc	r26, r1
    1e52:	b1 1d       	adc	r27, r1
    1e54:	80 87       	std	Z+8, r24	; 0x08
    1e56:	91 87       	std	Z+9, r25	; 0x09
    1e58:	a2 87       	std	Z+10, r26	; 0x0a
    1e5a:	b3 87       	std	Z+11, r27	; 0x0b
		 }		 
		 if (our_time[MINUTES]<0)
    1e5c:	80 91 89 02 	lds	r24, 0x0289
    1e60:	90 91 8a 02 	lds	r25, 0x028A
    1e64:	a0 91 8b 02 	lds	r26, 0x028B
    1e68:	b0 91 8c 02 	lds	r27, 0x028C
    1e6c:	bb 23       	and	r27, r27
    1e6e:	ac f4       	brge	.+42     	; 0x1e9a <_Z7Editing9Parameteri+0x4e6>
		 {
			  our_time[HOURE]--;
    1e70:	e5 e8       	ldi	r30, 0x85	; 133
    1e72:	f2 e0       	ldi	r31, 0x02	; 2
    1e74:	80 85       	ldd	r24, Z+8	; 0x08
    1e76:	91 85       	ldd	r25, Z+9	; 0x09
    1e78:	a2 85       	ldd	r26, Z+10	; 0x0a
    1e7a:	b3 85       	ldd	r27, Z+11	; 0x0b
    1e7c:	01 97       	sbiw	r24, 0x01	; 1
    1e7e:	a1 09       	sbc	r26, r1
    1e80:	b1 09       	sbc	r27, r1
    1e82:	80 87       	std	Z+8, r24	; 0x08
    1e84:	91 87       	std	Z+9, r25	; 0x09
    1e86:	a2 87       	std	Z+10, r26	; 0x0a
    1e88:	b3 87       	std	Z+11, r27	; 0x0b
			  our_time[MINUTES]=59;
    1e8a:	8b e3       	ldi	r24, 0x3B	; 59
    1e8c:	90 e0       	ldi	r25, 0x00	; 0
    1e8e:	a0 e0       	ldi	r26, 0x00	; 0
    1e90:	b0 e0       	ldi	r27, 0x00	; 0
    1e92:	84 83       	std	Z+4, r24	; 0x04
    1e94:	95 83       	std	Z+5, r25	; 0x05
    1e96:	a6 83       	std	Z+6, r26	; 0x06
    1e98:	b7 83       	std	Z+7, r27	; 0x07
		 }
		 if (our_time[HOURE]>=24) our_time[HOURE]=0;
    1e9a:	80 91 8d 02 	lds	r24, 0x028D
    1e9e:	90 91 8e 02 	lds	r25, 0x028E
    1ea2:	a0 91 8f 02 	lds	r26, 0x028F
    1ea6:	b0 91 90 02 	lds	r27, 0x0290
    1eaa:	88 31       	cpi	r24, 0x18	; 24
    1eac:	91 05       	cpc	r25, r1
    1eae:	a1 05       	cpc	r26, r1
    1eb0:	b1 05       	cpc	r27, r1
    1eb2:	4c f0       	brlt	.+18     	; 0x1ec6 <_Z7Editing9Parameteri+0x512>
    1eb4:	10 92 8d 02 	sts	0x028D, r1
    1eb8:	10 92 8e 02 	sts	0x028E, r1
    1ebc:	10 92 8f 02 	sts	0x028F, r1
    1ec0:	10 92 90 02 	sts	0x0290, r1
    1ec4:	45 c0       	rjmp	.+138    	; 0x1f50 <_Z7Editing9Parameteri+0x59c>
		 if (our_time[HOURE]<0) our_time[HOURE]=23;
    1ec6:	bb 23       	and	r27, r27
    1ec8:	0c f0       	brlt	.+2      	; 0x1ecc <_Z7Editing9Parameteri+0x518>
    1eca:	42 c0       	rjmp	.+132    	; 0x1f50 <_Z7Editing9Parameteri+0x59c>
    1ecc:	87 e1       	ldi	r24, 0x17	; 23
    1ece:	90 e0       	ldi	r25, 0x00	; 0
    1ed0:	a0 e0       	ldi	r26, 0x00	; 0
    1ed2:	b0 e0       	ldi	r27, 0x00	; 0
    1ed4:	80 93 8d 02 	sts	0x028D, r24
    1ed8:	90 93 8e 02 	sts	0x028E, r25
    1edc:	a0 93 8f 02 	sts	0x028F, r26
    1ee0:	b0 93 90 02 	sts	0x0290, r27
    1ee4:	35 c0       	rjmp	.+106    	; 0x1f50 <_Z7Editing9Parameteri+0x59c>
	
		 		 
		 break;
		 
		 case DAYOFWEEK_:
		 our_time[WEEKDAY]+=1*the_sign;
    1ee6:	e5 e8       	ldi	r30, 0x85	; 133
    1ee8:	f2 e0       	ldi	r31, 0x02	; 2
    1eea:	cb 01       	movw	r24, r22
    1eec:	77 0f       	add	r23, r23
    1eee:	aa 0b       	sbc	r26, r26
    1ef0:	bb 0b       	sbc	r27, r27
    1ef2:	04 85       	ldd	r16, Z+12	; 0x0c
    1ef4:	15 85       	ldd	r17, Z+13	; 0x0d
    1ef6:	26 85       	ldd	r18, Z+14	; 0x0e
    1ef8:	37 85       	ldd	r19, Z+15	; 0x0f
    1efa:	80 0f       	add	r24, r16
    1efc:	91 1f       	adc	r25, r17
    1efe:	a2 1f       	adc	r26, r18
    1f00:	b3 1f       	adc	r27, r19
    1f02:	84 87       	std	Z+12, r24	; 0x0c
    1f04:	95 87       	std	Z+13, r25	; 0x0d
    1f06:	a6 87       	std	Z+14, r26	; 0x0e
    1f08:	b7 87       	std	Z+15, r27	; 0x0f
		 if(our_time[WEEKDAY]>7) our_time[WEEKDAY]=1;
    1f0a:	88 30       	cpi	r24, 0x08	; 8
    1f0c:	91 05       	cpc	r25, r1
    1f0e:	a1 05       	cpc	r26, r1
    1f10:	b1 05       	cpc	r27, r1
    1f12:	6c f0       	brlt	.+26     	; 0x1f2e <_Z7Editing9Parameteri+0x57a>
    1f14:	81 e0       	ldi	r24, 0x01	; 1
    1f16:	90 e0       	ldi	r25, 0x00	; 0
    1f18:	a0 e0       	ldi	r26, 0x00	; 0
    1f1a:	b0 e0       	ldi	r27, 0x00	; 0
    1f1c:	80 93 91 02 	sts	0x0291, r24
    1f20:	90 93 92 02 	sts	0x0292, r25
    1f24:	a0 93 93 02 	sts	0x0293, r26
    1f28:	b0 93 94 02 	sts	0x0294, r27
    1f2c:	11 c0       	rjmp	.+34     	; 0x1f50 <_Z7Editing9Parameteri+0x59c>
		 if(our_time[WEEKDAY]<1) our_time[WEEKDAY]=7;		 		 		 
    1f2e:	18 16       	cp	r1, r24
    1f30:	19 06       	cpc	r1, r25
    1f32:	1a 06       	cpc	r1, r26
    1f34:	1b 06       	cpc	r1, r27
    1f36:	64 f0       	brlt	.+24     	; 0x1f50 <_Z7Editing9Parameteri+0x59c>
    1f38:	87 e0       	ldi	r24, 0x07	; 7
    1f3a:	90 e0       	ldi	r25, 0x00	; 0
    1f3c:	a0 e0       	ldi	r26, 0x00	; 0
    1f3e:	b0 e0       	ldi	r27, 0x00	; 0
    1f40:	80 93 91 02 	sts	0x0291, r24
    1f44:	90 93 92 02 	sts	0x0292, r25
    1f48:	a0 93 93 02 	sts	0x0293, r26
    1f4c:	b0 93 94 02 	sts	0x0294, r27
		 break;
		 
		 default:
		 break;	 
	}	
}
    1f50:	1f 91       	pop	r17
    1f52:	0f 91       	pop	r16
    1f54:	ff 90       	pop	r15
    1f56:	ef 90       	pop	r14
    1f58:	df 90       	pop	r13
    1f5a:	cf 90       	pop	r12
    1f5c:	08 95       	ret

00001f5e <_Z10menuChangeP8menuItem>:
#define PARENT      static_cast<menuItem*>(selectedMenuItem->Parent)
#define CHILD       static_cast<menuItem*>(selectedMenuItem->Child)
 
void menuChange(menuItem *NewMenu)
{
	if (NewMenu == (void*)&NULL_ENTRY)	 return;
    1f5e:	22 e0       	ldi	r18, 0x02	; 2
    1f60:	89 31       	cpi	r24, 0x19	; 25
    1f62:	92 07       	cpc	r25, r18
    1f64:	21 f0       	breq	.+8      	; 0x1f6e <_Z10menuChangeP8menuItem+0x10>
		
	selectedMenuItem = NewMenu;	
    1f66:	90 93 c6 03 	sts	0x03C6, r25
    1f6a:	80 93 c5 03 	sts	0x03C5, r24
    1f6e:	08 95       	ret

00001f70 <_Z7keyMenu12ButtonValues>:
 
//**************************************** Navigate menu itemes
void keyMenu(ButtonValues the_key)
{

	switch (the_key) // what the key has been pressed?
    1f70:	81 30       	cpi	r24, 0x01	; 1
    1f72:	31 f0       	breq	.+12     	; 0x1f80 <_Z7keyMenu12ButtonValues+0x10>
    1f74:	b8 f0       	brcs	.+46     	; 0x1fa4 <_Z7keyMenu12ButtonValues+0x34>
    1f76:	82 30       	cpi	r24, 0x02	; 2
    1f78:	81 f1       	breq	.+96     	; 0x1fda <_Z7keyMenu12ButtonValues+0x6a>
    1f7a:	85 30       	cpi	r24, 0x05	; 5
    1f7c:	29 f1       	breq	.+74     	; 0x1fc8 <_Z7keyMenu12ButtonValues+0x58>
    1f7e:	08 95       	ret
	{
		case UP:
		{
						
			//chek out what shoud we do 1) edit 2) show parameter 3) just go
			if  ( (selectedMenuItem->display_option) == EDIT_PARAMETER)			                 
    1f80:	e0 91 c5 03 	lds	r30, 0x03C5
    1f84:	f0 91 c6 03 	lds	r31, 0x03C6
    1f88:	80 85       	ldd	r24, Z+8	; 0x08
    1f8a:	82 30       	cpi	r24, 0x02	; 2
    1f8c:	31 f4       	brne	.+12     	; 0x1f9a <_Z7keyMenu12ButtonValues+0x2a>
			{				
				Editing (selectedMenuItem->edited_parameter, 1);
    1f8e:	61 e0       	ldi	r22, 0x01	; 1
    1f90:	70 e0       	ldi	r23, 0x00	; 0
    1f92:	81 85       	ldd	r24, Z+9	; 0x09
    1f94:	0e 94 da 0c 	call	0x19b4	; 0x19b4 <_Z7Editing9Parameteri>
				break;				
    1f98:	08 95       	ret
			}
			else 
			{				 
				 menuChange(PREVIOUS);			 
    1f9a:	82 81       	ldd	r24, Z+2	; 0x02
    1f9c:	93 81       	ldd	r25, Z+3	; 0x03
    1f9e:	0e 94 af 0f 	call	0x1f5e	; 0x1f5e <_Z10menuChangeP8menuItem>
			}
		}
		break;
    1fa2:	08 95       	ret
		
				
		case DOWN:				
			if  ( (selectedMenuItem->display_option) == EDIT_PARAMETER)
    1fa4:	e0 91 c5 03 	lds	r30, 0x03C5
    1fa8:	f0 91 c6 03 	lds	r31, 0x03C6
    1fac:	80 85       	ldd	r24, Z+8	; 0x08
    1fae:	82 30       	cpi	r24, 0x02	; 2
    1fb0:	31 f4       	brne	.+12     	; 0x1fbe <_Z7keyMenu12ButtonValues+0x4e>
			{
				Editing (selectedMenuItem->edited_parameter, -1);
    1fb2:	6f ef       	ldi	r22, 0xFF	; 255
    1fb4:	7f ef       	ldi	r23, 0xFF	; 255
    1fb6:	81 85       	ldd	r24, Z+9	; 0x09
    1fb8:	0e 94 da 0c 	call	0x19b4	; 0x19b4 <_Z7Editing9Parameteri>
				break;	
    1fbc:	08 95       	ret
			}			
			else
			{				
				menuChange(NEXT);
    1fbe:	80 81       	ld	r24, Z
    1fc0:	91 81       	ldd	r25, Z+1	; 0x01
    1fc2:	0e 94 af 0f 	call	0x1f5e	; 0x1f5e <_Z10menuChangeP8menuItem>
			}
		break;
    1fc6:	08 95       	ret
			
		case ESC:		  
		   menuChange(PARENT);		   
    1fc8:	e0 91 c5 03 	lds	r30, 0x03C5
    1fcc:	f0 91 c6 03 	lds	r31, 0x03C6
    1fd0:	84 81       	ldd	r24, Z+4	; 0x04
    1fd2:	95 81       	ldd	r25, Z+5	; 0x05
    1fd4:	0e 94 af 0f 	call	0x1f5e	; 0x1f5e <_Z10menuChangeP8menuItem>
		break;
    1fd8:	08 95       	ret
		
		case ENTER:					
			if  (selectedMenuItem->display_option == EDIT_PARAMETER)
    1fda:	e0 91 c5 03 	lds	r30, 0x03C5
    1fde:	f0 91 c6 03 	lds	r31, 0x03C6
    1fe2:	80 85       	ldd	r24, Z+8	; 0x08
    1fe4:	82 30       	cpi	r24, 0x02	; 2
    1fe6:	29 f4       	brne	.+10     	; 0x1ff2 <_Z7keyMenu12ButtonValues+0x82>
			{
				menuChange(PARENT);				
    1fe8:	84 81       	ldd	r24, Z+4	; 0x04
    1fea:	95 81       	ldd	r25, Z+5	; 0x05
    1fec:	0e 94 af 0f 	call	0x1f5e	; 0x1f5e <_Z10menuChangeP8menuItem>
    1ff0:	08 95       	ret
			} 
			else
			{
				 menuChange(CHILD);				
    1ff2:	86 81       	ldd	r24, Z+6	; 0x06
    1ff4:	97 81       	ldd	r25, Z+7	; 0x07
    1ff6:	0e 94 af 0f 	call	0x1f5e	; 0x1f5e <_Z10menuChangeP8menuItem>
    1ffa:	08 95       	ret

00001ffc <_Z11RenewScreenv>:
bool sens_err_G = false;



void RenewScreen (void)
{
    1ffc:	cf 92       	push	r12
    1ffe:	df 92       	push	r13
    2000:	ef 92       	push	r14
    2002:	ff 92       	push	r15
}


Parameter GetEditedParameter (void)
{
	return selectedMenuItem->edited_parameter;
    2004:	e0 91 c5 03 	lds	r30, 0x03C5
    2008:	f0 91 c6 03 	lds	r31, 0x03C6
				// update display information
				//what parameter to display
					
					unsigned int value;
					 
					switch (parameter)
    200c:	e1 85       	ldd	r30, Z+9	; 0x09
    200e:	8e 2f       	mov	r24, r30
    2010:	90 e0       	ldi	r25, 0x00	; 0
    2012:	fc 01       	movw	r30, r24
    2014:	31 97       	sbiw	r30, 0x01	; 1
    2016:	e4 32       	cpi	r30, 0x24	; 36
    2018:	f1 05       	cpc	r31, r1
    201a:	08 f0       	brcs	.+2      	; 0x201e <_Z11RenewScreenv+0x22>
    201c:	da c2       	rjmp	.+1460   	; 0x25d2 <_Z11RenewScreenv+0x5d6>
    201e:	e4 5f       	subi	r30, 0xF4	; 244
    2020:	fe 4f       	sbci	r31, 0xFE	; 254
    2022:	0c 94 cb 19 	jmp	0x3396	; 0x3396 <__tablejump2__>
				
					{
					   case T_KOMF:						
				       value = (t_room_comfortable_G+0.5)*100;
    2026:	20 e0       	ldi	r18, 0x00	; 0
    2028:	30 e0       	ldi	r19, 0x00	; 0
    202a:	40 e0       	ldi	r20, 0x00	; 0
    202c:	5f e3       	ldi	r21, 0x3F	; 63
    202e:	60 91 a2 00 	lds	r22, 0x00A2
    2032:	70 91 a3 00 	lds	r23, 0x00A3
    2036:	80 91 a4 00 	lds	r24, 0x00A4
    203a:	90 91 a5 00 	lds	r25, 0x00A5
    203e:	0e 94 95 17 	call	0x2f2a	; 0x2f2a <__addsf3>
    2042:	20 e0       	ldi	r18, 0x00	; 0
    2044:	30 e0       	ldi	r19, 0x00	; 0
    2046:	48 ec       	ldi	r20, 0xC8	; 200
    2048:	52 e4       	ldi	r21, 0x42	; 66
    204a:	0e 94 5e 19 	call	0x32bc	; 0x32bc <__mulsf3>
    204e:	0e 94 78 18 	call	0x30f0	; 0x30f0 <__fixunssfsi>
    2052:	dc 01       	movw	r26, r24
    2054:	cb 01       	movw	r24, r22
					   IND_OutputInteger(value, 3);
    2056:	63 e0       	ldi	r22, 0x03	; 3
    2058:	0e 94 9b 07 	call	0xf36	; 0xf36 <_Z17IND_OutputIntegerjh>
					   IND_OutputSymbol("*", 1);					   
    205c:	61 e0       	ldi	r22, 0x01	; 1
    205e:	8e ec       	ldi	r24, 0xCE	; 206
    2060:	92 e0       	ldi	r25, 0x02	; 2
    2062:	0e 94 dd 05 	call	0xbba	; 0xbba <_Z16IND_OutputSymbolPKch>
					   chosen_led_G = TCOMF_LED;   //chose regarding led
    2066:	10 92 ba 00 	sts	0x00BA, r1
					   blick_screen_G=false;
    206a:	10 92 85 03 	sts	0x0385, r1
					   break;	
    206e:	b1 c2       	rjmp	.+1378   	; 0x25d2 <_Z11RenewScreenv+0x5d6>
					   
					   case T_KOMF_:
					   value = (t_room_comfortable_G+0.5)*100;
    2070:	20 e0       	ldi	r18, 0x00	; 0
    2072:	30 e0       	ldi	r19, 0x00	; 0
    2074:	40 e0       	ldi	r20, 0x00	; 0
    2076:	5f e3       	ldi	r21, 0x3F	; 63
    2078:	60 91 a2 00 	lds	r22, 0x00A2
    207c:	70 91 a3 00 	lds	r23, 0x00A3
    2080:	80 91 a4 00 	lds	r24, 0x00A4
    2084:	90 91 a5 00 	lds	r25, 0x00A5
    2088:	0e 94 95 17 	call	0x2f2a	; 0x2f2a <__addsf3>
    208c:	20 e0       	ldi	r18, 0x00	; 0
    208e:	30 e0       	ldi	r19, 0x00	; 0
    2090:	48 ec       	ldi	r20, 0xC8	; 200
    2092:	52 e4       	ldi	r21, 0x42	; 66
    2094:	0e 94 5e 19 	call	0x32bc	; 0x32bc <__mulsf3>
    2098:	0e 94 78 18 	call	0x30f0	; 0x30f0 <__fixunssfsi>
    209c:	dc 01       	movw	r26, r24
    209e:	cb 01       	movw	r24, r22
					   IND_OutputInteger(value, 3);
    20a0:	63 e0       	ldi	r22, 0x03	; 3
    20a2:	0e 94 9b 07 	call	0xf36	; 0xf36 <_Z17IND_OutputIntegerjh>
					   IND_OutputSymbol("*", 1);
    20a6:	61 e0       	ldi	r22, 0x01	; 1
    20a8:	8e ec       	ldi	r24, 0xCE	; 206
    20aa:	92 e0       	ldi	r25, 0x02	; 2
    20ac:	0e 94 dd 05 	call	0xbba	; 0xbba <_Z16IND_OutputSymbolPKch>
					   chosen_led_G = TCOMF_LED;   //chose regarding led
    20b0:	10 92 ba 00 	sts	0x00BA, r1
					   blick_screen_G=true;
    20b4:	81 e0       	ldi	r24, 0x01	; 1
    20b6:	80 93 85 03 	sts	0x0385, r24
					   break;
    20ba:	8b c2       	rjmp	.+1302   	; 0x25d2 <_Z11RenewScreenv+0x5d6>
					   
					   									
					   case T_ECO:					   
					   value = (t_room_eco_G+0.5)*100;
    20bc:	20 e0       	ldi	r18, 0x00	; 0
    20be:	30 e0       	ldi	r19, 0x00	; 0
    20c0:	40 e0       	ldi	r20, 0x00	; 0
    20c2:	5f e3       	ldi	r21, 0x3F	; 63
    20c4:	60 91 9e 00 	lds	r22, 0x009E
    20c8:	70 91 9f 00 	lds	r23, 0x009F
    20cc:	80 91 a0 00 	lds	r24, 0x00A0
    20d0:	90 91 a1 00 	lds	r25, 0x00A1
    20d4:	0e 94 95 17 	call	0x2f2a	; 0x2f2a <__addsf3>
    20d8:	20 e0       	ldi	r18, 0x00	; 0
    20da:	30 e0       	ldi	r19, 0x00	; 0
    20dc:	48 ec       	ldi	r20, 0xC8	; 200
    20de:	52 e4       	ldi	r21, 0x42	; 66
    20e0:	0e 94 5e 19 	call	0x32bc	; 0x32bc <__mulsf3>
    20e4:	0e 94 78 18 	call	0x30f0	; 0x30f0 <__fixunssfsi>
    20e8:	dc 01       	movw	r26, r24
    20ea:	cb 01       	movw	r24, r22
					   IND_OutputInteger(value, 3);
    20ec:	63 e0       	ldi	r22, 0x03	; 3
    20ee:	0e 94 9b 07 	call	0xf36	; 0xf36 <_Z17IND_OutputIntegerjh>
					   IND_OutputSymbol("*", 1);
    20f2:	61 e0       	ldi	r22, 0x01	; 1
    20f4:	8e ec       	ldi	r24, 0xCE	; 206
    20f6:	92 e0       	ldi	r25, 0x02	; 2
    20f8:	0e 94 dd 05 	call	0xbba	; 0xbba <_Z16IND_OutputSymbolPKch>
					   blick_screen_G=false;
    20fc:	10 92 85 03 	sts	0x0385, r1
					   chosen_led_G = TECO_LED;   //chose regarding led
    2100:	81 e0       	ldi	r24, 0x01	; 1
    2102:	80 93 ba 00 	sts	0x00BA, r24
					   break;
    2106:	65 c2       	rjmp	.+1226   	; 0x25d2 <_Z11RenewScreenv+0x5d6>
					   
					   	case T_ECO_:
					   	value = (t_room_eco_G+0.5)*100;
    2108:	20 e0       	ldi	r18, 0x00	; 0
    210a:	30 e0       	ldi	r19, 0x00	; 0
    210c:	40 e0       	ldi	r20, 0x00	; 0
    210e:	5f e3       	ldi	r21, 0x3F	; 63
    2110:	60 91 9e 00 	lds	r22, 0x009E
    2114:	70 91 9f 00 	lds	r23, 0x009F
    2118:	80 91 a0 00 	lds	r24, 0x00A0
    211c:	90 91 a1 00 	lds	r25, 0x00A1
    2120:	0e 94 95 17 	call	0x2f2a	; 0x2f2a <__addsf3>
    2124:	20 e0       	ldi	r18, 0x00	; 0
    2126:	30 e0       	ldi	r19, 0x00	; 0
    2128:	48 ec       	ldi	r20, 0xC8	; 200
    212a:	52 e4       	ldi	r21, 0x42	; 66
    212c:	0e 94 5e 19 	call	0x32bc	; 0x32bc <__mulsf3>
    2130:	0e 94 78 18 	call	0x30f0	; 0x30f0 <__fixunssfsi>
    2134:	dc 01       	movw	r26, r24
    2136:	cb 01       	movw	r24, r22
					   	IND_OutputInteger(value, 3);
    2138:	63 e0       	ldi	r22, 0x03	; 3
    213a:	0e 94 9b 07 	call	0xf36	; 0xf36 <_Z17IND_OutputIntegerjh>
					   	IND_OutputSymbol("*", 1);
    213e:	61 e0       	ldi	r22, 0x01	; 1
    2140:	8e ec       	ldi	r24, 0xCE	; 206
    2142:	92 e0       	ldi	r25, 0x02	; 2
    2144:	0e 94 dd 05 	call	0xbba	; 0xbba <_Z16IND_OutputSymbolPKch>
					   	blick_screen_G=true;
    2148:	81 e0       	ldi	r24, 0x01	; 1
    214a:	80 93 85 03 	sts	0x0385, r24
					   	chosen_led_G = TECO_LED;   //chose regarding led
    214e:	80 93 ba 00 	sts	0x00BA, r24
					   	break;
    2152:	3f c2       	rjmp	.+1150   	; 0x25d2 <_Z11RenewScreenv+0x5d6>
					 //////////////  
					   case T_OUTSIDE:
					   chosen_led_G = TOUTSIDE_LED;   //chose regarding led
    2154:	84 e0       	ldi	r24, 0x04	; 4
    2156:	80 93 ba 00 	sts	0x00BA, r24
					   if (sens_err_G) 
    215a:	80 91 c4 03 	lds	r24, 0x03C4
    215e:	88 23       	and	r24, r24
    2160:	49 f0       	breq	.+18     	; 0x2174 <_Z11RenewScreenv+0x178>
					   {
						 IND_OutputText("err ",0);  
    2162:	60 e0       	ldi	r22, 0x00	; 0
    2164:	80 ed       	ldi	r24, 0xD0	; 208
    2166:	92 e0       	ldi	r25, 0x02	; 2
    2168:	0e 94 cb 06 	call	0xd96	; 0xd96 <_Z14IND_OutputTextPKch>
						 blick_screen_G=true; 
    216c:	81 e0       	ldi	r24, 0x01	; 1
    216e:	80 93 85 03 	sts	0x0385, r24
						 break;
    2172:	2f c2       	rjmp	.+1118   	; 0x25d2 <_Z11RenewScreenv+0x5d6>
					   }
					   if (t_outside_G<0)  //for values under 0 degree
    2174:	c0 90 c0 03 	lds	r12, 0x03C0
    2178:	d0 90 c1 03 	lds	r13, 0x03C1
    217c:	e0 90 c2 03 	lds	r14, 0x03C2
    2180:	f0 90 c3 03 	lds	r15, 0x03C3
    2184:	20 e0       	ldi	r18, 0x00	; 0
    2186:	30 e0       	ldi	r19, 0x00	; 0
    2188:	a9 01       	movw	r20, r18
    218a:	c7 01       	movw	r24, r14
    218c:	b6 01       	movw	r22, r12
    218e:	0e 94 01 18 	call	0x3002	; 0x3002 <__cmpsf2>
    2192:	88 23       	and	r24, r24
    2194:	bc f5       	brge	.+110    	; 0x2204 <_Z11RenewScreenv+0x208>
						{
							value = static_cast<unsigned int>(t_outside_G*(-100));						   
    2196:	20 e0       	ldi	r18, 0x00	; 0
    2198:	30 e0       	ldi	r19, 0x00	; 0
    219a:	48 ec       	ldi	r20, 0xC8	; 200
    219c:	52 ec       	ldi	r21, 0xC2	; 194
    219e:	c7 01       	movw	r24, r14
    21a0:	b6 01       	movw	r22, r12
    21a2:	0e 94 5e 19 	call	0x32bc	; 0x32bc <__mulsf3>
    21a6:	0e 94 78 18 	call	0x30f0	; 0x30f0 <__fixunssfsi>
    21aa:	dc 01       	movw	r26, r24
    21ac:	cb 01       	movw	r24, r22
							if (value >= 1000)  // for values under -10
    21ae:	88 3e       	cpi	r24, 0xE8	; 232
    21b0:	23 e0       	ldi	r18, 0x03	; 3
    21b2:	92 07       	cpc	r25, r18
    21b4:	c8 f0       	brcs	.+50     	; 0x21e8 <_Z11RenewScreenv+0x1ec>
							{
								value = value/10;
    21b6:	9c 01       	movw	r18, r24
    21b8:	ad ec       	ldi	r26, 0xCD	; 205
    21ba:	bc ec       	ldi	r27, 0xCC	; 204
    21bc:	0e 94 d1 19 	call	0x33a2	; 0x33a2 <__umulhisi3>
								IND_OutputInteger(value, 0);
    21c0:	60 e0       	ldi	r22, 0x00	; 0
    21c2:	96 95       	lsr	r25
    21c4:	87 95       	ror	r24
    21c6:	96 95       	lsr	r25
    21c8:	87 95       	ror	r24
    21ca:	96 95       	lsr	r25
    21cc:	87 95       	ror	r24
    21ce:	0e 94 9b 07 	call	0xf36	; 0xf36 <_Z17IND_OutputIntegerjh>
								IND_OutputSymbol("-", 4);
    21d2:	64 e0       	ldi	r22, 0x04	; 4
    21d4:	85 ed       	ldi	r24, 0xD5	; 213
    21d6:	92 e0       	ldi	r25, 0x02	; 2
    21d8:	0e 94 dd 05 	call	0xbba	; 0xbba <_Z16IND_OutputSymbolPKch>
								IND_OutputSymbol("*", 1);
    21dc:	61 e0       	ldi	r22, 0x01	; 1
    21de:	8e ec       	ldi	r24, 0xCE	; 206
    21e0:	92 e0       	ldi	r25, 0x02	; 2
    21e2:	0e 94 dd 05 	call	0xbba	; 0xbba <_Z16IND_OutputSymbolPKch>
    21e6:	f5 c1       	rjmp	.+1002   	; 0x25d2 <_Z11RenewScreenv+0x5d6>
							}
							else  // 0 to -10
							{
								IND_OutputInteger(value, 3);
    21e8:	63 e0       	ldi	r22, 0x03	; 3
    21ea:	0e 94 9b 07 	call	0xf36	; 0xf36 <_Z17IND_OutputIntegerjh>
								IND_OutputSymbol("-", 4);
    21ee:	64 e0       	ldi	r22, 0x04	; 4
    21f0:	85 ed       	ldi	r24, 0xD5	; 213
    21f2:	92 e0       	ldi	r25, 0x02	; 2
    21f4:	0e 94 dd 05 	call	0xbba	; 0xbba <_Z16IND_OutputSymbolPKch>
								IND_OutputSymbol("*", 1);   
    21f8:	61 e0       	ldi	r22, 0x01	; 1
    21fa:	8e ec       	ldi	r24, 0xCE	; 206
    21fc:	92 e0       	ldi	r25, 0x02	; 2
    21fe:	0e 94 dd 05 	call	0xbba	; 0xbba <_Z16IND_OutputSymbolPKch>
    2202:	e7 c1       	rjmp	.+974    	; 0x25d2 <_Z11RenewScreenv+0x5d6>
							}				   
						   
						}
						else 
						{
							value = t_outside_G*100;
    2204:	20 e0       	ldi	r18, 0x00	; 0
    2206:	30 e0       	ldi	r19, 0x00	; 0
    2208:	48 ec       	ldi	r20, 0xC8	; 200
    220a:	52 e4       	ldi	r21, 0x42	; 66
    220c:	c7 01       	movw	r24, r14
    220e:	b6 01       	movw	r22, r12
    2210:	0e 94 5e 19 	call	0x32bc	; 0x32bc <__mulsf3>
    2214:	0e 94 78 18 	call	0x30f0	; 0x30f0 <__fixunssfsi>
    2218:	dc 01       	movw	r26, r24
    221a:	cb 01       	movw	r24, r22
							IND_OutputInteger(value, 3);
    221c:	63 e0       	ldi	r22, 0x03	; 3
    221e:	0e 94 9b 07 	call	0xf36	; 0xf36 <_Z17IND_OutputIntegerjh>
							IND_OutputSymbol("*", 1);   
    2222:	61 e0       	ldi	r22, 0x01	; 1
    2224:	8e ec       	ldi	r24, 0xCE	; 206
    2226:	92 e0       	ldi	r25, 0x02	; 2
    2228:	0e 94 dd 05 	call	0xbba	; 0xbba <_Z16IND_OutputSymbolPKch>
    222c:	d2 c1       	rjmp	.+932    	; 0x25d2 <_Z11RenewScreenv+0x5d6>
						}						
					   break;
					///////////////////   
					   case T_FLOW:
					   chosen_led_G = TFLOW_LED;   //chose regarding led	
    222e:	82 e0       	ldi	r24, 0x02	; 2
    2230:	80 93 ba 00 	sts	0x00BA, r24
					   if (sens_err_G) 					   
    2234:	80 91 c4 03 	lds	r24, 0x03C4
    2238:	88 23       	and	r24, r24
    223a:	49 f0       	breq	.+18     	; 0x224e <_Z11RenewScreenv+0x252>
					   {
						    IND_OutputText("err ",0);	
    223c:	60 e0       	ldi	r22, 0x00	; 0
    223e:	80 ed       	ldi	r24, 0xD0	; 208
    2240:	92 e0       	ldi	r25, 0x02	; 2
    2242:	0e 94 cb 06 	call	0xd96	; 0xd96 <_Z14IND_OutputTextPKch>
							blick_screen_G=true;						
    2246:	81 e0       	ldi	r24, 0x01	; 1
    2248:	80 93 85 03 	sts	0x0385, r24
							break;
    224c:	c2 c1       	rjmp	.+900    	; 0x25d2 <_Z11RenewScreenv+0x5d6>
					   }					   					  
						value = (t_flow_G+0.5)*10;
    224e:	20 e0       	ldi	r18, 0x00	; 0
    2250:	30 e0       	ldi	r19, 0x00	; 0
    2252:	40 e0       	ldi	r20, 0x00	; 0
    2254:	5f e3       	ldi	r21, 0x3F	; 63
    2256:	60 91 b2 00 	lds	r22, 0x00B2
    225a:	70 91 b3 00 	lds	r23, 0x00B3
    225e:	80 91 b4 00 	lds	r24, 0x00B4
    2262:	90 91 b5 00 	lds	r25, 0x00B5
    2266:	0e 94 95 17 	call	0x2f2a	; 0x2f2a <__addsf3>
    226a:	20 e0       	ldi	r18, 0x00	; 0
    226c:	30 e0       	ldi	r19, 0x00	; 0
    226e:	40 e2       	ldi	r20, 0x20	; 32
    2270:	51 e4       	ldi	r21, 0x41	; 65
    2272:	0e 94 5e 19 	call	0x32bc	; 0x32bc <__mulsf3>
    2276:	0e 94 78 18 	call	0x30f0	; 0x30f0 <__fixunssfsi>
    227a:	dc 01       	movw	r26, r24
    227c:	cb 01       	movw	r24, r22
						IND_OutputInteger(value, 0);
    227e:	60 e0       	ldi	r22, 0x00	; 0
    2280:	0e 94 9b 07 	call	0xf36	; 0xf36 <_Z17IND_OutputIntegerjh>
						IND_OutputSymbol("*", 1);									   
    2284:	61 e0       	ldi	r22, 0x01	; 1
    2286:	8e ec       	ldi	r24, 0xCE	; 206
    2288:	92 e0       	ldi	r25, 0x02	; 2
    228a:	0e 94 dd 05 	call	0xbba	; 0xbba <_Z16IND_OutputSymbolPKch>
					   break;	   
    228e:	a1 c1       	rjmp	.+834    	; 0x25d2 <_Z11RenewScreenv+0x5d6>
					///////////////   				   
					   case T_SET:
					   value = (t_flow_setpoint_G+0.5)*10;
    2290:	20 e0       	ldi	r18, 0x00	; 0
    2292:	30 e0       	ldi	r19, 0x00	; 0
    2294:	40 e0       	ldi	r20, 0x00	; 0
    2296:	5f e3       	ldi	r21, 0x3F	; 63
    2298:	60 91 ae 00 	lds	r22, 0x00AE
    229c:	70 91 af 00 	lds	r23, 0x00AF
    22a0:	80 91 b0 00 	lds	r24, 0x00B0
    22a4:	90 91 b1 00 	lds	r25, 0x00B1
    22a8:	0e 94 95 17 	call	0x2f2a	; 0x2f2a <__addsf3>
    22ac:	20 e0       	ldi	r18, 0x00	; 0
    22ae:	30 e0       	ldi	r19, 0x00	; 0
    22b0:	40 e2       	ldi	r20, 0x20	; 32
    22b2:	51 e4       	ldi	r21, 0x41	; 65
    22b4:	0e 94 5e 19 	call	0x32bc	; 0x32bc <__mulsf3>
    22b8:	0e 94 78 18 	call	0x30f0	; 0x30f0 <__fixunssfsi>
    22bc:	dc 01       	movw	r26, r24
    22be:	cb 01       	movw	r24, r22
					   IND_OutputInteger(value, 0);
    22c0:	60 e0       	ldi	r22, 0x00	; 0
    22c2:	0e 94 9b 07 	call	0xf36	; 0xf36 <_Z17IND_OutputIntegerjh>
					   IND_OutputSymbol("*", 1);
    22c6:	61 e0       	ldi	r22, 0x01	; 1
    22c8:	8e ec       	ldi	r24, 0xCE	; 206
    22ca:	92 e0       	ldi	r25, 0x02	; 2
    22cc:	0e 94 dd 05 	call	0xbba	; 0xbba <_Z16IND_OutputSymbolPKch>
					   blick_screen_G=false;
    22d0:	10 92 85 03 	sts	0x0385, r1
					   chosen_led_G = TSET_LED;   //chose regarding led
    22d4:	83 e0       	ldi	r24, 0x03	; 3
    22d6:	80 93 ba 00 	sts	0x00BA, r24
					   break;
    22da:	7b c1       	rjmp	.+758    	; 0x25d2 <_Z11RenewScreenv+0x5d6>
					///////////////   
					   case PROG:
					   IND_OutputText("prog",0);
    22dc:	60 e0       	ldi	r22, 0x00	; 0
    22de:	87 ed       	ldi	r24, 0xD7	; 215
    22e0:	92 e0       	ldi	r25, 0x02	; 2
    22e2:	0e 94 cb 06 	call	0xd96	; 0xd96 <_Z14IND_OutputTextPKch>
					   blick_screen_G=false;
    22e6:	10 92 85 03 	sts	0x0385, r1
					   chosen_led_G = PROG_LED;
    22ea:	85 e0       	ldi	r24, 0x05	; 5
    22ec:	80 93 ba 00 	sts	0x00BA, r24
					   break;
    22f0:	70 c1       	rjmp	.+736    	; 0x25d2 <_Z11RenewScreenv+0x5d6>
					   
					   case MENU:
					   IND_OutputText("set", 0);
    22f2:	60 e0       	ldi	r22, 0x00	; 0
    22f4:	8c ed       	ldi	r24, 0xDC	; 220
    22f6:	92 e0       	ldi	r25, 0x02	; 2
    22f8:	0e 94 cb 06 	call	0xd96	; 0xd96 <_Z14IND_OutputTextPKch>
					   blick_screen_G=false;
    22fc:	10 92 85 03 	sts	0x0385, r1
					   chosen_led_G = MENU_LED;
    2300:	86 e0       	ldi	r24, 0x06	; 6
    2302:	80 93 ba 00 	sts	0x00BA, r24
					   break;
    2306:	65 c1       	rjmp	.+714    	; 0x25d2 <_Z11RenewScreenv+0x5d6>
					   
					   case MO:
					   IND_OutputText(TextProgNum(0,day_prog), 0);
    2308:	64 e6       	ldi	r22, 0x64	; 100
    230a:	70 e0       	ldi	r23, 0x00	; 0
    230c:	80 e0       	ldi	r24, 0x00	; 0
    230e:	90 e0       	ldi	r25, 0x00	; 0
    2310:	0e 94 6f 01 	call	0x2de	; 0x2de <_Z11TextProgNumiP9program_t>
    2314:	60 e0       	ldi	r22, 0x00	; 0
    2316:	0e 94 cb 06 	call	0xd96	; 0xd96 <_Z14IND_OutputTextPKch>
					   blick_screen_G=false;
    231a:	10 92 85 03 	sts	0x0385, r1
					   chosen_led_G = MO_LED; 
    231e:	87 e0       	ldi	r24, 0x07	; 7
    2320:	80 93 ba 00 	sts	0x00BA, r24
					   break;
    2324:	56 c1       	rjmp	.+684    	; 0x25d2 <_Z11RenewScreenv+0x5d6>
					   
					   case TU:
					   IND_OutputText(TextProgNum(1,day_prog), 0);
    2326:	64 e6       	ldi	r22, 0x64	; 100
    2328:	70 e0       	ldi	r23, 0x00	; 0
    232a:	81 e0       	ldi	r24, 0x01	; 1
    232c:	90 e0       	ldi	r25, 0x00	; 0
    232e:	0e 94 6f 01 	call	0x2de	; 0x2de <_Z11TextProgNumiP9program_t>
    2332:	60 e0       	ldi	r22, 0x00	; 0
    2334:	0e 94 cb 06 	call	0xd96	; 0xd96 <_Z14IND_OutputTextPKch>
					   blick_screen_G=false;
    2338:	10 92 85 03 	sts	0x0385, r1
					   chosen_led_G = TU_LED;
    233c:	88 e0       	ldi	r24, 0x08	; 8
    233e:	80 93 ba 00 	sts	0x00BA, r24
					   break;
    2342:	47 c1       	rjmp	.+654    	; 0x25d2 <_Z11RenewScreenv+0x5d6>
					   
					   case WE:
					   IND_OutputText(TextProgNum(2,day_prog), 0);
    2344:	64 e6       	ldi	r22, 0x64	; 100
    2346:	70 e0       	ldi	r23, 0x00	; 0
    2348:	82 e0       	ldi	r24, 0x02	; 2
    234a:	90 e0       	ldi	r25, 0x00	; 0
    234c:	0e 94 6f 01 	call	0x2de	; 0x2de <_Z11TextProgNumiP9program_t>
    2350:	60 e0       	ldi	r22, 0x00	; 0
    2352:	0e 94 cb 06 	call	0xd96	; 0xd96 <_Z14IND_OutputTextPKch>
					   blick_screen_G=false;
    2356:	10 92 85 03 	sts	0x0385, r1
					   chosen_led_G = WE_LED;
    235a:	89 e0       	ldi	r24, 0x09	; 9
    235c:	80 93 ba 00 	sts	0x00BA, r24
					   break;
    2360:	38 c1       	rjmp	.+624    	; 0x25d2 <_Z11RenewScreenv+0x5d6>
					   
					   case TH:
					   IND_OutputText(TextProgNum(3,day_prog), 0);
    2362:	64 e6       	ldi	r22, 0x64	; 100
    2364:	70 e0       	ldi	r23, 0x00	; 0
    2366:	83 e0       	ldi	r24, 0x03	; 3
    2368:	90 e0       	ldi	r25, 0x00	; 0
    236a:	0e 94 6f 01 	call	0x2de	; 0x2de <_Z11TextProgNumiP9program_t>
    236e:	60 e0       	ldi	r22, 0x00	; 0
    2370:	0e 94 cb 06 	call	0xd96	; 0xd96 <_Z14IND_OutputTextPKch>
					   blick_screen_G=false;
    2374:	10 92 85 03 	sts	0x0385, r1
					   chosen_led_G = TH_LED;
    2378:	8a e0       	ldi	r24, 0x0A	; 10
    237a:	80 93 ba 00 	sts	0x00BA, r24
					   break;
    237e:	29 c1       	rjmp	.+594    	; 0x25d2 <_Z11RenewScreenv+0x5d6>
					   
					   case FR:
					   IND_OutputText(TextProgNum(4,day_prog), 0);
    2380:	64 e6       	ldi	r22, 0x64	; 100
    2382:	70 e0       	ldi	r23, 0x00	; 0
    2384:	84 e0       	ldi	r24, 0x04	; 4
    2386:	90 e0       	ldi	r25, 0x00	; 0
    2388:	0e 94 6f 01 	call	0x2de	; 0x2de <_Z11TextProgNumiP9program_t>
    238c:	60 e0       	ldi	r22, 0x00	; 0
    238e:	0e 94 cb 06 	call	0xd96	; 0xd96 <_Z14IND_OutputTextPKch>
					   blick_screen_G=false;
    2392:	10 92 85 03 	sts	0x0385, r1
					   chosen_led_G = FR_LED;
    2396:	8b e0       	ldi	r24, 0x0B	; 11
    2398:	80 93 ba 00 	sts	0x00BA, r24
					   break;
    239c:	1a c1       	rjmp	.+564    	; 0x25d2 <_Z11RenewScreenv+0x5d6>
					   
					   case SA:
					   IND_OutputText(TextProgNum(5,day_prog), 0);
    239e:	64 e6       	ldi	r22, 0x64	; 100
    23a0:	70 e0       	ldi	r23, 0x00	; 0
    23a2:	85 e0       	ldi	r24, 0x05	; 5
    23a4:	90 e0       	ldi	r25, 0x00	; 0
    23a6:	0e 94 6f 01 	call	0x2de	; 0x2de <_Z11TextProgNumiP9program_t>
    23aa:	60 e0       	ldi	r22, 0x00	; 0
    23ac:	0e 94 cb 06 	call	0xd96	; 0xd96 <_Z14IND_OutputTextPKch>
					   blick_screen_G=false;
    23b0:	10 92 85 03 	sts	0x0385, r1
					   chosen_led_G = SA_LED;
    23b4:	8c e0       	ldi	r24, 0x0C	; 12
    23b6:	80 93 ba 00 	sts	0x00BA, r24
					   break;
    23ba:	0b c1       	rjmp	.+534    	; 0x25d2 <_Z11RenewScreenv+0x5d6>
					   				   
					   case SU:
					   IND_OutputText(TextProgNum(6,day_prog), 0);
    23bc:	64 e6       	ldi	r22, 0x64	; 100
    23be:	70 e0       	ldi	r23, 0x00	; 0
    23c0:	86 e0       	ldi	r24, 0x06	; 6
    23c2:	90 e0       	ldi	r25, 0x00	; 0
    23c4:	0e 94 6f 01 	call	0x2de	; 0x2de <_Z11TextProgNumiP9program_t>
    23c8:	60 e0       	ldi	r22, 0x00	; 0
    23ca:	0e 94 cb 06 	call	0xd96	; 0xd96 <_Z14IND_OutputTextPKch>
					   blick_screen_G=false;
    23ce:	10 92 85 03 	sts	0x0385, r1
					   chosen_led_G = SU_LED;					 
    23d2:	8d e0       	ldi	r24, 0x0D	; 13
    23d4:	80 93 ba 00 	sts	0x00BA, r24
					   break;			   
    23d8:	fc c0       	rjmp	.+504    	; 0x25d2 <_Z11RenewScreenv+0x5d6>
					
							case MO_P:
							IND_OutputText(TextProgNum(0,day_prog), 0);		
    23da:	64 e6       	ldi	r22, 0x64	; 100
    23dc:	70 e0       	ldi	r23, 0x00	; 0
    23de:	80 e0       	ldi	r24, 0x00	; 0
    23e0:	90 e0       	ldi	r25, 0x00	; 0
    23e2:	0e 94 6f 01 	call	0x2de	; 0x2de <_Z11TextProgNumiP9program_t>
    23e6:	60 e0       	ldi	r22, 0x00	; 0
    23e8:	0e 94 cb 06 	call	0xd96	; 0xd96 <_Z14IND_OutputTextPKch>
							blick_screen_G=true;					
    23ec:	81 e0       	ldi	r24, 0x01	; 1
    23ee:	80 93 85 03 	sts	0x0385, r24
							break;
    23f2:	ef c0       	rjmp	.+478    	; 0x25d2 <_Z11RenewScreenv+0x5d6>
					   
							case TU_P:
							IND_OutputText(TextProgNum(1,day_prog), 0);	
    23f4:	64 e6       	ldi	r22, 0x64	; 100
    23f6:	70 e0       	ldi	r23, 0x00	; 0
    23f8:	81 e0       	ldi	r24, 0x01	; 1
    23fa:	90 e0       	ldi	r25, 0x00	; 0
    23fc:	0e 94 6f 01 	call	0x2de	; 0x2de <_Z11TextProgNumiP9program_t>
    2400:	60 e0       	ldi	r22, 0x00	; 0
    2402:	0e 94 cb 06 	call	0xd96	; 0xd96 <_Z14IND_OutputTextPKch>
							blick_screen_G=true;						
    2406:	81 e0       	ldi	r24, 0x01	; 1
    2408:	80 93 85 03 	sts	0x0385, r24
							break;
    240c:	e2 c0       	rjmp	.+452    	; 0x25d2 <_Z11RenewScreenv+0x5d6>
					    
							case WE_P:
							IND_OutputText(TextProgNum(2,day_prog), 0);	
    240e:	64 e6       	ldi	r22, 0x64	; 100
    2410:	70 e0       	ldi	r23, 0x00	; 0
    2412:	82 e0       	ldi	r24, 0x02	; 2
    2414:	90 e0       	ldi	r25, 0x00	; 0
    2416:	0e 94 6f 01 	call	0x2de	; 0x2de <_Z11TextProgNumiP9program_t>
    241a:	60 e0       	ldi	r22, 0x00	; 0
    241c:	0e 94 cb 06 	call	0xd96	; 0xd96 <_Z14IND_OutputTextPKch>
							blick_screen_G=true;						
    2420:	81 e0       	ldi	r24, 0x01	; 1
    2422:	80 93 85 03 	sts	0x0385, r24
							break;
    2426:	d5 c0       	rjmp	.+426    	; 0x25d2 <_Z11RenewScreenv+0x5d6>
					    
							case TH_P:
							IND_OutputText(TextProgNum(3,day_prog), 0);	
    2428:	64 e6       	ldi	r22, 0x64	; 100
    242a:	70 e0       	ldi	r23, 0x00	; 0
    242c:	83 e0       	ldi	r24, 0x03	; 3
    242e:	90 e0       	ldi	r25, 0x00	; 0
    2430:	0e 94 6f 01 	call	0x2de	; 0x2de <_Z11TextProgNumiP9program_t>
    2434:	60 e0       	ldi	r22, 0x00	; 0
    2436:	0e 94 cb 06 	call	0xd96	; 0xd96 <_Z14IND_OutputTextPKch>
							blick_screen_G=true;						
    243a:	81 e0       	ldi	r24, 0x01	; 1
    243c:	80 93 85 03 	sts	0x0385, r24
							break;
    2440:	c8 c0       	rjmp	.+400    	; 0x25d2 <_Z11RenewScreenv+0x5d6>
					    
							case FR_P:
							IND_OutputText(TextProgNum(4,day_prog), 0);	
    2442:	64 e6       	ldi	r22, 0x64	; 100
    2444:	70 e0       	ldi	r23, 0x00	; 0
    2446:	84 e0       	ldi	r24, 0x04	; 4
    2448:	90 e0       	ldi	r25, 0x00	; 0
    244a:	0e 94 6f 01 	call	0x2de	; 0x2de <_Z11TextProgNumiP9program_t>
    244e:	60 e0       	ldi	r22, 0x00	; 0
    2450:	0e 94 cb 06 	call	0xd96	; 0xd96 <_Z14IND_OutputTextPKch>
							blick_screen_G=true;						
    2454:	81 e0       	ldi	r24, 0x01	; 1
    2456:	80 93 85 03 	sts	0x0385, r24
							break;
    245a:	bb c0       	rjmp	.+374    	; 0x25d2 <_Z11RenewScreenv+0x5d6>
					    
							case SA_P:
							IND_OutputText(TextProgNum(5,day_prog), 0);	
    245c:	64 e6       	ldi	r22, 0x64	; 100
    245e:	70 e0       	ldi	r23, 0x00	; 0
    2460:	85 e0       	ldi	r24, 0x05	; 5
    2462:	90 e0       	ldi	r25, 0x00	; 0
    2464:	0e 94 6f 01 	call	0x2de	; 0x2de <_Z11TextProgNumiP9program_t>
    2468:	60 e0       	ldi	r22, 0x00	; 0
    246a:	0e 94 cb 06 	call	0xd96	; 0xd96 <_Z14IND_OutputTextPKch>
							blick_screen_G=true;						
    246e:	81 e0       	ldi	r24, 0x01	; 1
    2470:	80 93 85 03 	sts	0x0385, r24
							break;
    2474:	ae c0       	rjmp	.+348    	; 0x25d2 <_Z11RenewScreenv+0x5d6>
					    
							case SU_P:
							IND_OutputText(TextProgNum(6,day_prog), 0);	
    2476:	64 e6       	ldi	r22, 0x64	; 100
    2478:	70 e0       	ldi	r23, 0x00	; 0
    247a:	86 e0       	ldi	r24, 0x06	; 6
    247c:	90 e0       	ldi	r25, 0x00	; 0
    247e:	0e 94 6f 01 	call	0x2de	; 0x2de <_Z11TextProgNumiP9program_t>
    2482:	60 e0       	ldi	r22, 0x00	; 0
    2484:	0e 94 cb 06 	call	0xd96	; 0xd96 <_Z14IND_OutputTextPKch>
							blick_screen_G=true;						
    2488:	81 e0       	ldi	r24, 0x01	; 1
    248a:	80 93 85 03 	sts	0x0385, r24
							break;
    248e:	a1 c0       	rjmp	.+322    	; 0x25d2 <_Z11RenewScreenv+0x5d6>
					   
					   case CURVE:
					   IND_OutputText(" cur", 0);
    2490:	60 e0       	ldi	r22, 0x00	; 0
    2492:	80 ee       	ldi	r24, 0xE0	; 224
    2494:	92 e0       	ldi	r25, 0x02	; 2
    2496:	0e 94 cb 06 	call	0xd96	; 0xd96 <_Z14IND_OutputTextPKch>
					   blick_screen_G=false;
    249a:	10 92 85 03 	sts	0x0385, r1
					   break;
    249e:	99 c0       	rjmp	.+306    	; 0x25d2 <_Z11RenewScreenv+0x5d6>
					   case SERVO:
					   IND_OutputText("ser ", 0);
					   break;
					   */
					   case P:
					   IND_OutputText("ppid", 0);
    24a0:	60 e0       	ldi	r22, 0x00	; 0
    24a2:	85 ee       	ldi	r24, 0xE5	; 229
    24a4:	92 e0       	ldi	r25, 0x02	; 2
    24a6:	0e 94 cb 06 	call	0xd96	; 0xd96 <_Z14IND_OutputTextPKch>
					   blick_screen_G=false;
    24aa:	10 92 85 03 	sts	0x0385, r1
					   break;
    24ae:	91 c0       	rjmp	.+290    	; 0x25d2 <_Z11RenewScreenv+0x5d6>
					   
					   case I:
					   IND_OutputText("ipid", 0);
    24b0:	60 e0       	ldi	r22, 0x00	; 0
    24b2:	8a ee       	ldi	r24, 0xEA	; 234
    24b4:	92 e0       	ldi	r25, 0x02	; 2
    24b6:	0e 94 cb 06 	call	0xd96	; 0xd96 <_Z14IND_OutputTextPKch>
					   blick_screen_G=false;
    24ba:	10 92 85 03 	sts	0x0385, r1
					   break;
    24be:	89 c0       	rjmp	.+274    	; 0x25d2 <_Z11RenewScreenv+0x5d6>
					   
					   case D:
					   IND_OutputText("dpid", 0);
    24c0:	60 e0       	ldi	r22, 0x00	; 0
    24c2:	8f ee       	ldi	r24, 0xEF	; 239
    24c4:	92 e0       	ldi	r25, 0x02	; 2
    24c6:	0e 94 cb 06 	call	0xd96	; 0xd96 <_Z14IND_OutputTextPKch>
					   blick_screen_G=false;
    24ca:	10 92 85 03 	sts	0x0385, r1
					   break;
    24ce:	81 c0       	rjmp	.+258    	; 0x25d2 <_Z11RenewScreenv+0x5d6>
					   
					   case TIME:
					   IND_OutputText("cloc", 0);
    24d0:	60 e0       	ldi	r22, 0x00	; 0
    24d2:	84 ef       	ldi	r24, 0xF4	; 244
    24d4:	92 e0       	ldi	r25, 0x02	; 2
    24d6:	0e 94 cb 06 	call	0xd96	; 0xd96 <_Z14IND_OutputTextPKch>
					   blick_screen_G=false;
    24da:	10 92 85 03 	sts	0x0385, r1
					   break;
    24de:	79 c0       	rjmp	.+242    	; 0x25d2 <_Z11RenewScreenv+0x5d6>
					   
					   case DAYOFWEEK:
					   IND_OutputText(" day", 0);
    24e0:	60 e0       	ldi	r22, 0x00	; 0
    24e2:	89 ef       	ldi	r24, 0xF9	; 249
    24e4:	92 e0       	ldi	r25, 0x02	; 2
    24e6:	0e 94 cb 06 	call	0xd96	; 0xd96 <_Z14IND_OutputTextPKch>
					   blick_screen_G=false;
    24ea:	10 92 85 03 	sts	0x0385, r1
					   break;
    24ee:	71 c0       	rjmp	.+226    	; 0x25d2 <_Z11RenewScreenv+0x5d6>
					   case RESERVE:
					   
					   break;
					   		 		   
					   case CURVE_:
					   value = heating_curve_G*10;
    24f0:	20 e0       	ldi	r18, 0x00	; 0
    24f2:	30 e0       	ldi	r19, 0x00	; 0
    24f4:	40 e2       	ldi	r20, 0x20	; 32
    24f6:	51 e4       	ldi	r21, 0x41	; 65
    24f8:	60 91 77 00 	lds	r22, 0x0077
    24fc:	70 91 78 00 	lds	r23, 0x0078
    2500:	80 91 79 00 	lds	r24, 0x0079
    2504:	90 91 7a 00 	lds	r25, 0x007A
    2508:	0e 94 5e 19 	call	0x32bc	; 0x32bc <__mulsf3>
    250c:	0e 94 78 18 	call	0x30f0	; 0x30f0 <__fixunssfsi>
    2510:	dc 01       	movw	r26, r24
    2512:	cb 01       	movw	r24, r22
					   IND_OutputInteger(value,2);
    2514:	62 e0       	ldi	r22, 0x02	; 2
    2516:	0e 94 9b 07 	call	0xf36	; 0xf36 <_Z17IND_OutputIntegerjh>
					   blick_screen_G=true;
    251a:	81 e0       	ldi	r24, 0x01	; 1
    251c:	80 93 85 03 	sts	0x0385, r24
					   break;
    2520:	58 c0       	rjmp	.+176    	; 0x25d2 <_Z11RenewScreenv+0x5d6>
					   value = servo_period_G/1000;
					   IND_OutputInteger(value, 0);
					   break;  
					   */
					   case P_:
					   value = Kp_G;
    2522:	60 91 73 00 	lds	r22, 0x0073
    2526:	70 91 74 00 	lds	r23, 0x0074
    252a:	80 91 75 00 	lds	r24, 0x0075
    252e:	90 91 76 00 	lds	r25, 0x0076
    2532:	0e 94 78 18 	call	0x30f0	; 0x30f0 <__fixunssfsi>
    2536:	dc 01       	movw	r26, r24
    2538:	cb 01       	movw	r24, r22
					   IND_OutputInteger(value, 0);
    253a:	60 e0       	ldi	r22, 0x00	; 0
    253c:	0e 94 9b 07 	call	0xf36	; 0xf36 <_Z17IND_OutputIntegerjh>
					   blick_screen_G=true;
    2540:	81 e0       	ldi	r24, 0x01	; 1
    2542:	80 93 85 03 	sts	0x0385, r24
					   break;
    2546:	45 c0       	rjmp	.+138    	; 0x25d2 <_Z11RenewScreenv+0x5d6>
					   
					   case I_:
					   value = Ki_G;
    2548:	60 91 6f 00 	lds	r22, 0x006F
    254c:	70 91 70 00 	lds	r23, 0x0070
    2550:	80 91 71 00 	lds	r24, 0x0071
    2554:	90 91 72 00 	lds	r25, 0x0072
    2558:	0e 94 78 18 	call	0x30f0	; 0x30f0 <__fixunssfsi>
    255c:	dc 01       	movw	r26, r24
    255e:	cb 01       	movw	r24, r22
					   IND_OutputInteger(value, 0);
    2560:	60 e0       	ldi	r22, 0x00	; 0
    2562:	0e 94 9b 07 	call	0xf36	; 0xf36 <_Z17IND_OutputIntegerjh>
					   blick_screen_G=true;
    2566:	81 e0       	ldi	r24, 0x01	; 1
    2568:	80 93 85 03 	sts	0x0385, r24
					   break;
    256c:	32 c0       	rjmp	.+100    	; 0x25d2 <_Z11RenewScreenv+0x5d6>
					   
					   case D_:
					   value = Kd_G;
    256e:	60 91 6b 00 	lds	r22, 0x006B
    2572:	70 91 6c 00 	lds	r23, 0x006C
    2576:	80 91 6d 00 	lds	r24, 0x006D
    257a:	90 91 6e 00 	lds	r25, 0x006E
    257e:	0e 94 78 18 	call	0x30f0	; 0x30f0 <__fixunssfsi>
    2582:	dc 01       	movw	r26, r24
    2584:	cb 01       	movw	r24, r22
					   IND_OutputInteger(value, 0);
    2586:	60 e0       	ldi	r22, 0x00	; 0
    2588:	0e 94 9b 07 	call	0xf36	; 0xf36 <_Z17IND_OutputIntegerjh>
					   blick_screen_G=true;
    258c:	81 e0       	ldi	r24, 0x01	; 1
    258e:	80 93 85 03 	sts	0x0385, r24
					   break;
    2592:	1f c0       	rjmp	.+62     	; 0x25d2 <_Z11RenewScreenv+0x5d6>
					   
					   case TIME_:
					   value=our_time[HOURE]*100+our_time[MINUTES];
    2594:	e5 e8       	ldi	r30, 0x85	; 133
    2596:	f2 e0       	ldi	r31, 0x02	; 2
    2598:	80 85       	ldd	r24, Z+8	; 0x08
    259a:	91 85       	ldd	r25, Z+9	; 0x09
    259c:	44 e6       	ldi	r20, 0x64	; 100
    259e:	48 9f       	mul	r20, r24
    25a0:	90 01       	movw	r18, r0
    25a2:	49 9f       	mul	r20, r25
    25a4:	30 0d       	add	r19, r0
    25a6:	11 24       	eor	r1, r1
    25a8:	84 81       	ldd	r24, Z+4	; 0x04
    25aa:	95 81       	ldd	r25, Z+5	; 0x05
					   IND_OutputInteger(value, 3);			
    25ac:	63 e0       	ldi	r22, 0x03	; 3
    25ae:	82 0f       	add	r24, r18
    25b0:	93 1f       	adc	r25, r19
    25b2:	0e 94 9b 07 	call	0xf36	; 0xf36 <_Z17IND_OutputIntegerjh>
					   blick_screen_G=true;		
    25b6:	81 e0       	ldi	r24, 0x01	; 1
    25b8:	80 93 85 03 	sts	0x0385, r24
					   break;
    25bc:	0a c0       	rjmp	.+20     	; 0x25d2 <_Z11RenewScreenv+0x5d6>
									   
					   case DAYOFWEEK_:
					   value=our_time[WEEKDAY];
					   IND_OutputInteger(value, 0);
    25be:	60 e0       	ldi	r22, 0x00	; 0
    25c0:	80 91 91 02 	lds	r24, 0x0291
    25c4:	90 91 92 02 	lds	r25, 0x0292
    25c8:	0e 94 9b 07 	call	0xf36	; 0xf36 <_Z17IND_OutputIntegerjh>
					   blick_screen_G=true;
    25cc:	81 e0       	ldi	r24, 0x01	; 1
    25ce:	80 93 85 03 	sts	0x0385, r24
					  
					   default:
					   break;
					}
				
    25d2:	ff 90       	pop	r15
    25d4:	ef 90       	pop	r14
    25d6:	df 90       	pop	r13
    25d8:	cf 90       	pop	r12
    25da:	08 95       	ret

000025dc <_Z15Buttons_initialv>:
}

void Buttons_initial (void)
{
	
	PORT_COM &= ~(1 << PIN_COM);   // Pull up the resistor
    25dc:	93 98       	cbi	0x12, 3	; 18
	DDR_COM |= (1 << PIN_COM);     // Clear the PD3 pin   as input
    25de:	8b 9a       	sbi	0x11, 3	; 17
	
	//set buttons' ports direction as output and put 0
	
	PORT_ESC  |=  (1 << PIN_ESC);
    25e0:	94 9a       	sbi	0x12, 4	; 18
	PORT_DOWN  |=  (1 << PIN_DOWN);
    25e2:	96 9a       	sbi	0x12, 6	; 18
	PORT_UP    |=  (1 << PIN_UP);
    25e4:	95 9a       	sbi	0x12, 5	; 18
	PORT_ENTER |=  (1 << PIN_ENTER);
    25e6:	97 9a       	sbi	0x12, 7	; 18
	
	DDR_ESC    &= ~(1 << PIN_ESC);
    25e8:	8c 98       	cbi	0x11, 4	; 17
	DDR_DOWN  &= ~ (1 << PIN_DOWN);
    25ea:	8e 98       	cbi	0x11, 6	; 17
	DDR_UP    &= ~ (1 << PIN_UP);
    25ec:	8d 98       	cbi	0x11, 5	; 17
	DDR_ENTER  &= ~ (1 << PIN_ENTER);	
    25ee:	8f 98       	cbi	0x11, 7	; 17
    25f0:	08 95       	ret

000025f2 <_Z18wait_unpressingY_N12ButtonValues>:
}


bool wait_unpressingY_N (ButtonValues sw_button)
{
	if (  sw_button==ENTER||sw_button==ESC||
    25f2:	82 30       	cpi	r24, 0x02	; 2
    25f4:	71 f0       	breq	.+28     	; 0x2612 <_Z18wait_unpressingY_N12ButtonValues+0x20>
    25f6:	85 30       	cpi	r24, 0x05	; 5
    25f8:	71 f0       	breq	.+28     	; 0x2616 <_Z18wait_unpressingY_N12ButtonValues+0x24>
    25fa:	82 30       	cpi	r24, 0x02	; 2
    25fc:	70 f4       	brcc	.+28     	; 0x261a <_Z18wait_unpressingY_N12ButtonValues+0x28>
	     ((sw_button==DOWN||sw_button==UP)&&((selectedMenuItem->display_option) != EDIT_PARAMETER))
    25fe:	e0 91 c5 03 	lds	r30, 0x03C5
    2602:	f0 91 c6 03 	lds	r31, 0x03C6
    2606:	81 e0       	ldi	r24, 0x01	; 1
    2608:	90 85       	ldd	r25, Z+8	; 0x08
    260a:	92 30       	cpi	r25, 0x02	; 2
    260c:	39 f4       	brne	.+14     	; 0x261c <_Z18wait_unpressingY_N12ButtonValues+0x2a>
    260e:	80 e0       	ldi	r24, 0x00	; 0
    2610:	08 95       	ret
	   )
	{
		return true;
    2612:	81 e0       	ldi	r24, 0x01	; 1
    2614:	08 95       	ret
    2616:	81 e0       	ldi	r24, 0x01	; 1
    2618:	08 95       	ret
	}
	else return false;
    261a:	80 e0       	ldi	r24, 0x00	; 0
}
    261c:	08 95       	ret

0000261e <_Z15longpress_check12ButtonValues>:
uint16_t longpress_check(ButtonValues sw_button)
{
	static uint16_t counts_=0;
	
	
	if (sw_button == DOWN || sw_button == UP)
    261e:	82 30       	cpi	r24, 0x02	; 2
    2620:	60 f4       	brcc	.+24     	; 0x263a <_Z15longpress_check12ButtonValues+0x1c>
	{	
		blick_screen_G=false;
    2622:	10 92 85 03 	sts	0x0385, r1
		counts_++;
    2626:	80 91 c7 03 	lds	r24, 0x03C7
    262a:	90 91 c8 03 	lds	r25, 0x03C8
    262e:	01 96       	adiw	r24, 0x01	; 1
    2630:	90 93 c8 03 	sts	0x03C8, r25
    2634:	80 93 c7 03 	sts	0x03C7, r24
    2638:	06 c0       	rjmp	.+12     	; 0x2646 <_Z15longpress_check12ButtonValues+0x28>
	}
	else 
	{
		counts_=0;	
    263a:	10 92 c8 03 	sts	0x03C8, r1
    263e:	10 92 c7 03 	sts	0x03C7, r1
		RenewScreen();
    2642:	0e 94 fe 0f 	call	0x1ffc	; 0x1ffc <_Z11RenewScreenv>
	}
	
	if (counts_>20)
    2646:	80 91 c7 03 	lds	r24, 0x03C7
    264a:	90 91 c8 03 	lds	r25, 0x03C8
    264e:	85 31       	cpi	r24, 0x15	; 21
    2650:	91 05       	cpc	r25, r1
    2652:	28 f0       	brcs	.+10     	; 0x265e <_Z15longpress_check12ButtonValues+0x40>
	{
		blick_screen_G=false;
    2654:	10 92 85 03 	sts	0x0385, r1
		return BUTTON_PERIOD_REACTION/4;
    2658:	80 e2       	ldi	r24, 0x20	; 32
    265a:	90 e0       	ldi	r25, 0x00	; 0
    265c:	08 95       	ret
	}
	else if (counts_>8)
    265e:	09 97       	sbiw	r24, 0x09	; 9
    2660:	28 f0       	brcs	.+10     	; 0x266c <_Z15longpress_check12ButtonValues+0x4e>
	{
		blick_screen_G=false;
    2662:	10 92 85 03 	sts	0x0385, r1
		return BUTTON_PERIOD_REACTION/2;
    2666:	81 e4       	ldi	r24, 0x41	; 65
    2668:	90 e0       	ldi	r25, 0x00	; 0
    266a:	08 95       	ret
	}
	else return BUTTON_PERIOD_REACTION;
    266c:	82 e8       	ldi	r24, 0x82	; 130
    266e:	90 e0       	ldi	r25, 0x00	; 0
}
    2670:	08 95       	ret

00002672 <_Z12buttonAction12ButtonValuesPj>:



repeatingHandler sw_button_action;
bool buttonAction (ButtonValues sw_button, uint16_t* period_p)
{
    2672:	1f 93       	push	r17
    2674:	cf 93       	push	r28
    2676:	df 93       	push	r29
	if (sw_button_action.repeat (*period_p))
    2678:	fb 01       	movw	r30, r22
    267a:	20 81       	ld	r18, Z
    267c:	31 81       	ldd	r19, Z+1	; 0x01
	repeatingHandler();	
	~repeatingHandler();
		
	bool repeat (uint16_t period)
	{		
		if (period==0)
    267e:	21 15       	cp	r18, r1
    2680:	31 05       	cpc	r19, r1
    2682:	29 f1       	breq	.+74     	; 0x26ce <_Z12buttonAction12ButtonValuesPj+0x5c>
		{
			return false;  // out if period =0; don't repeat at all	
		}		
		if (perform==false)	
    2684:	90 91 ce 03 	lds	r25, 0x03CE
    2688:	91 11       	cpse	r25, r1
    268a:	07 c0       	rjmp	.+14     	; 0x269a <_Z12buttonAction12ButtonValuesPj+0x28>
		{
			perform = true;		
    268c:	ea ec       	ldi	r30, 0xCA	; 202
    268e:	f3 e0       	ldi	r31, 0x03	; 3
    2690:	81 e0       	ldi	r24, 0x01	; 1
    2692:	84 83       	std	Z+4, r24	; 0x04
			ticks = 0;
    2694:	13 82       	std	Z+3, r1	; 0x03
    2696:	12 82       	std	Z+2, r1	; 0x02
    2698:	1a c0       	rjmp	.+52     	; 0x26ce <_Z12buttonAction12ButtonValuesPj+0x5c>
			return false;								
		}		
		
		if (perform==true)
		{
			if (ticks>=period)
    269a:	40 91 cc 03 	lds	r20, 0x03CC
    269e:	50 91 cd 03 	lds	r21, 0x03CD
    26a2:	42 17       	cp	r20, r18
    26a4:	53 07       	cpc	r21, r19
    26a6:	98 f0       	brcs	.+38     	; 0x26ce <_Z12buttonAction12ButtonValuesPj+0x5c>
    26a8:	eb 01       	movw	r28, r22
    26aa:	18 2f       	mov	r17, r24
			{
				perform = false;
    26ac:	10 92 ce 03 	sts	0x03CE, r1
	{
		keyMenu(sw_button);			
    26b0:	0e 94 b8 0f 	call	0x1f70	; 0x1f70 <_Z7keyMenu12ButtonValues>
		Beep();
    26b4:	0e 94 83 0a 	call	0x1506	; 0x1506 <_Z4Beepv>
		RenewScreen();
    26b8:	0e 94 fe 0f 	call	0x1ffc	; 0x1ffc <_Z11RenewScreenv>
		*period_p=longpress_check(sw_button);		
    26bc:	81 2f       	mov	r24, r17
    26be:	0e 94 0f 13 	call	0x261e	; 0x261e <_Z15longpress_check12ButtonValues>
    26c2:	99 83       	std	Y+1, r25	; 0x01
    26c4:	88 83       	st	Y, r24
		return wait_unpressingY_N(sw_button);
    26c6:	81 2f       	mov	r24, r17
    26c8:	0e 94 f9 12 	call	0x25f2	; 0x25f2 <_Z18wait_unpressingY_N12ButtonValues>
    26cc:	01 c0       	rjmp	.+2      	; 0x26d0 <_Z12buttonAction12ButtonValuesPj+0x5e>
	}	
	return false;
    26ce:	80 e0       	ldi	r24, 0x00	; 0
}
    26d0:	df 91       	pop	r29
    26d2:	cf 91       	pop	r28
    26d4:	1f 91       	pop	r17
    26d6:	08 95       	ret

000026d8 <_Z22button_reaction_Method12ButtonValues>:
void button_reaction_Method (ButtonValues sw_button)
{
	static bool wait_unpressing = false;
	static uint16_t period = BUTTON_PERIOD_REACTION;
	
	if (wait_unpressing)
    26d8:	90 91 c9 03 	lds	r25, 0x03C9
    26dc:	99 23       	and	r25, r25
    26de:	39 f0       	breq	.+14     	; 0x26ee <_Z22button_reaction_Method12ButtonValues+0x16>
	{
		if (button_G == UNPRESSED) wait_unpressing=false;				
    26e0:	80 91 97 00 	lds	r24, 0x0097
    26e4:	83 30       	cpi	r24, 0x03	; 3
    26e6:	b9 f4       	brne	.+46     	; 0x2716 <_Z22button_reaction_Method12ButtonValues+0x3e>
    26e8:	10 92 c9 03 	sts	0x03C9, r1
    26ec:	08 95       	ret
	}
	else
	{
		if (button_G!=UNPRESSED)
    26ee:	90 91 97 00 	lds	r25, 0x0097
    26f2:	93 30       	cpi	r25, 0x03	; 3
    26f4:	41 f0       	breq	.+16     	; 0x2706 <_Z22button_reaction_Method12ButtonValues+0x2e>
		{
			wait_unpressing= buttonAction(button_G, &period);			
    26f6:	63 e2       	ldi	r22, 0x23	; 35
    26f8:	72 e0       	ldi	r23, 0x02	; 2
    26fa:	89 2f       	mov	r24, r25
    26fc:	0e 94 39 13 	call	0x2672	; 0x2672 <_Z12buttonAction12ButtonValuesPj>
    2700:	80 93 c9 03 	sts	0x03C9, r24
    2704:	08 95       	ret
		}
		else 
		{
			period=longpress_check(sw_button);			
    2706:	0e 94 0f 13 	call	0x261e	; 0x261e <_Z15longpress_check12ButtonValues>
    270a:	90 93 24 02 	sts	0x0224, r25
    270e:	80 93 23 02 	sts	0x0223, r24
			wait_unpressing=false;
    2712:	10 92 c9 03 	sts	0x03C9, r1
    2716:	08 95       	ret

00002718 <_Z13PressedButtonv>:
{
	//check out the  button	esc
			unsigned char r = 0;
			char a=0;
			char b=0;
		    r = ~PINx_ESC;
    2718:	90 b3       	in	r25, 0x10	; 16
    271a:	90 95       	com	r25
			r &= (1<<PIN_ESC);  //  //here we get the PIN_ESC, other bits we make 0
    271c:	90 71       	andi	r25, 0x10	; 16
    271e:	84 e0       	ldi	r24, 0x04	; 4
ButtonValues PressedButton (void)
{
	//check out the  button	esc
			unsigned char r = 0;
			char a=0;
			char b=0;
    2720:	20 e0       	ldi	r18, 0x00	; 0

ButtonValues PressedButton (void)
{
	//check out the  button	esc
			unsigned char r = 0;
			char a=0;
    2722:	30 e0       	ldi	r19, 0x00	; 0
		    r = ~PINx_ESC;
			r &= (1<<PIN_ESC);  //  //here we get the PIN_ESC, other bits we make 0
			
			for (char i=1; i<5; i++)
			{		
					if(r == (1<<PIN_ESC)) a++;	
    2724:	90 31       	cpi	r25, 0x10	; 16
    2726:	11 f4       	brne	.+4      	; 0x272c <_Z13PressedButtonv+0x14>
    2728:	3f 5f       	subi	r19, 0xFF	; 255
    272a:	01 c0       	rjmp	.+2      	; 0x272e <_Z13PressedButtonv+0x16>
					else b++;
    272c:	2f 5f       	subi	r18, 0xFF	; 255
    272e:	81 50       	subi	r24, 0x01	; 1
			char a=0;
			char b=0;
		    r = ~PINx_ESC;
			r &= (1<<PIN_ESC);  //  //here we get the PIN_ESC, other bits we make 0
			
			for (char i=1; i<5; i++)
    2730:	c9 f7       	brne	.-14     	; 0x2724 <_Z13PressedButtonv+0xc>
			{		
					if(r == (1<<PIN_ESC)) a++;	
					else b++;
					//_delay_ms(2);					
			}
			if (a>b) return ESC;
    2732:	23 17       	cp	r18, r19
    2734:	78 f1       	brcs	.+94     	; 0x2794 <_Z13PressedButtonv+0x7c>
			
			//chek out the button -
			a=0;
			b=0;
			r = ~PINx_DOWN;
    2736:	90 b3       	in	r25, 0x10	; 16
    2738:	90 95       	com	r25
			r &= (1<<PIN_DOWN);  //  //here we get the PIN_DOWN, other bits we do 0
    273a:	90 74       	andi	r25, 0x40	; 64
    273c:	84 e0       	ldi	r24, 0x04	; 4
			}
			if (a>b) return ESC;
			
			//chek out the button -
			a=0;
			b=0;
    273e:	20 e0       	ldi	r18, 0x00	; 0
					//_delay_ms(2);					
			}
			if (a>b) return ESC;
			
			//chek out the button -
			a=0;
    2740:	30 e0       	ldi	r19, 0x00	; 0
			b=0;
			r = ~PINx_DOWN;
			r &= (1<<PIN_DOWN);  //  //here we get the PIN_DOWN, other bits we do 0
			for (char i=1; i<5; i++)
			{
				if(r == (1<<PIN_DOWN)) a++;
    2742:	90 34       	cpi	r25, 0x40	; 64
    2744:	11 f4       	brne	.+4      	; 0x274a <_Z13PressedButtonv+0x32>
    2746:	3f 5f       	subi	r19, 0xFF	; 255
    2748:	01 c0       	rjmp	.+2      	; 0x274c <_Z13PressedButtonv+0x34>
				else b++;
    274a:	2f 5f       	subi	r18, 0xFF	; 255
    274c:	81 50       	subi	r24, 0x01	; 1
			//chek out the button -
			a=0;
			b=0;
			r = ~PINx_DOWN;
			r &= (1<<PIN_DOWN);  //  //here we get the PIN_DOWN, other bits we do 0
			for (char i=1; i<5; i++)
    274e:	c9 f7       	brne	.-14     	; 0x2742 <_Z13PressedButtonv+0x2a>
			{
				if(r == (1<<PIN_DOWN)) a++;
				else b++;
				//_delay_ms(2);
			}		
			if (a>b)  return DOWN;
    2750:	23 17       	cp	r18, r19
    2752:	10 f1       	brcs	.+68     	; 0x2798 <_Z13PressedButtonv+0x80>
				 
				 
			
		
			//check out the button +
			r = ~PINx_UP;
    2754:	90 b3       	in	r25, 0x10	; 16
    2756:	90 95       	com	r25
			r &= (1<<PIN_UP);  //  //here we get the PIN_DOWN, other bits we do 0
    2758:	90 72       	andi	r25, 0x20	; 32
    275a:	84 e0       	ldi	r24, 0x04	; 4
			a=0;
			b=0;
    275c:	20 e0       	ldi	r18, 0x00	; 0
			
		
			//check out the button +
			r = ~PINx_UP;
			r &= (1<<PIN_UP);  //  //here we get the PIN_DOWN, other bits we do 0
			a=0;
    275e:	30 e0       	ldi	r19, 0x00	; 0
			b=0;
			for (char i=1; i<5; i++)
			{
				if(r == (1<<PIN_UP)) a++;
    2760:	90 32       	cpi	r25, 0x20	; 32
    2762:	11 f4       	brne	.+4      	; 0x2768 <_Z13PressedButtonv+0x50>
    2764:	3f 5f       	subi	r19, 0xFF	; 255
    2766:	01 c0       	rjmp	.+2      	; 0x276a <_Z13PressedButtonv+0x52>
				else b++;
    2768:	2f 5f       	subi	r18, 0xFF	; 255
    276a:	81 50       	subi	r24, 0x01	; 1
			//check out the button +
			r = ~PINx_UP;
			r &= (1<<PIN_UP);  //  //here we get the PIN_DOWN, other bits we do 0
			a=0;
			b=0;
			for (char i=1; i<5; i++)
    276c:	c9 f7       	brne	.-14     	; 0x2760 <_Z13PressedButtonv+0x48>
			{
				if(r == (1<<PIN_UP)) a++;
				else b++;
				//_delay_ms(2);
			}
			if (a>b) return UP;		
    276e:	23 17       	cp	r18, r19
    2770:	a8 f0       	brcs	.+42     	; 0x279c <_Z13PressedButtonv+0x84>
				
			
		
			//check out the button ENTER
			r = ~PINx_ENTER;
    2772:	90 b3       	in	r25, 0x10	; 16
    2774:	90 95       	com	r25
			r &= (1<<PIN_ENTER);  //  //here we get the PIN_Enter, other bits we do 0
    2776:	90 78       	andi	r25, 0x80	; 128
    2778:	84 e0       	ldi	r24, 0x04	; 4
			a=0;
			b=0;
    277a:	20 e0       	ldi	r18, 0x00	; 0
			
		
			//check out the button ENTER
			r = ~PINx_ENTER;
			r &= (1<<PIN_ENTER);  //  //here we get the PIN_Enter, other bits we do 0
			a=0;
    277c:	30 e0       	ldi	r19, 0x00	; 0
			b=0;
			for (char i=1; i<5; i++)
			{
				if(r == (1<<PIN_ENTER)) a++;
    277e:	90 38       	cpi	r25, 0x80	; 128
    2780:	11 f4       	brne	.+4      	; 0x2786 <_Z13PressedButtonv+0x6e>
    2782:	3f 5f       	subi	r19, 0xFF	; 255
    2784:	01 c0       	rjmp	.+2      	; 0x2788 <_Z13PressedButtonv+0x70>
				else b++;
    2786:	2f 5f       	subi	r18, 0xFF	; 255
    2788:	81 50       	subi	r24, 0x01	; 1
			//check out the button ENTER
			r = ~PINx_ENTER;
			r &= (1<<PIN_ENTER);  //  //here we get the PIN_Enter, other bits we do 0
			a=0;
			b=0;
			for (char i=1; i<5; i++)
    278a:	c9 f7       	brne	.-14     	; 0x277e <_Z13PressedButtonv+0x66>
			{
				if(r == (1<<PIN_ENTER)) a++;
				else b++;
				//_delay_ms(2);
			}
			if (a>b) return ENTER;
    278c:	23 17       	cp	r18, r19
    278e:	40 f0       	brcs	.+16     	; 0x27a0 <_Z13PressedButtonv+0x88>
	
		
		
		return UNPRESSED;
    2790:	83 e0       	ldi	r24, 0x03	; 3
    2792:	08 95       	ret
			{		
					if(r == (1<<PIN_ESC)) a++;	
					else b++;
					//_delay_ms(2);					
			}
			if (a>b) return ESC;
    2794:	85 e0       	ldi	r24, 0x05	; 5
    2796:	08 95       	ret
			{
				if(r == (1<<PIN_DOWN)) a++;
				else b++;
				//_delay_ms(2);
			}		
			if (a>b)  return DOWN;
    2798:	80 e0       	ldi	r24, 0x00	; 0
    279a:	08 95       	ret
			{
				if(r == (1<<PIN_UP)) a++;
				else b++;
				//_delay_ms(2);
			}
			if (a>b) return UP;		
    279c:	81 e0       	ldi	r24, 0x01	; 1
    279e:	08 95       	ret
			{
				if(r == (1<<PIN_ENTER)) a++;
				else b++;
				//_delay_ms(2);
			}
			if (a>b) return ENTER;
    27a0:	82 e0       	ldi	r24, 0x02	; 2
	
		
		
		return UNPRESSED;
}
    27a2:	08 95       	ret

000027a4 <_Z18Buttons_qustioningv>:
	{		
		if (period==0)
		{
			return false;  // out if period =0; don't repeat at all	
		}		
		if (perform==false)	
    27a4:	80 91 9f 03 	lds	r24, 0x039F
    27a8:	81 11       	cpse	r24, r1
    27aa:	07 c0       	rjmp	.+14     	; 0x27ba <_Z18Buttons_qustioningv+0x16>
		{
			perform = true;		
    27ac:	eb e9       	ldi	r30, 0x9B	; 155
    27ae:	f3 e0       	ldi	r31, 0x03	; 3
    27b0:	81 e0       	ldi	r24, 0x01	; 1
    27b2:	84 83       	std	Z+4, r24	; 0x04
			ticks = 0;
    27b4:	13 82       	std	Z+3, r1	; 0x03
    27b6:	12 82       	std	Z+2, r1	; 0x02
    27b8:	0c c0       	rjmp	.+24     	; 0x27d2 <_Z18Buttons_qustioningv+0x2e>
			return false;								
		}		
		
		if (perform==true)
		{
			if (ticks>=period)
    27ba:	80 91 9d 03 	lds	r24, 0x039D
    27be:	90 91 9e 03 	lds	r25, 0x039E
    27c2:	4e 97       	sbiw	r24, 0x1e	; 30
    27c4:	30 f0       	brcs	.+12     	; 0x27d2 <_Z18Buttons_qustioningv+0x2e>
			{
				perform = false;
    27c6:	10 92 9f 03 	sts	0x039F, r1
void Buttons_qustioning (void)
{
	
	static uint16_t period = BUTTONS_PERIOD_CHECK;	
				 
	if (switches_ask.repeat(period)) button_G = PressedButton();  // repeating period
    27ca:	0e 94 8c 13 	call	0x2718	; 0x2718 <_Z13PressedButtonv>
    27ce:	80 93 97 00 	sts	0x0097, r24
	button_reaction_Method(button_G);
    27d2:	80 91 97 00 	lds	r24, 0x0097
    27d6:	0e 94 6c 13 	call	0x26d8	; 0x26d8 <_Z22button_reaction_Method12ButtonValues>
    27da:	08 95       	ret

000027dc <_Z12Lock_buttonsv>:
}


void Lock_buttons (void)
{	
		GICR &= ~(1 << INT1);      // Turns off INT1 interrupts 
    27dc:	8b b7       	in	r24, 0x3b	; 59
    27de:	8f 77       	andi	r24, 0x7F	; 127
    27e0:	8b bf       	out	0x3b, r24	; 59
	
		PORT_COM &= ~(1 << PIN_COM);   // Pull up the resistor
    27e2:	93 98       	cbi	0x12, 3	; 18
		DDR_COM |= (1 << PIN_COM);     // Clear the PD2 pin   as input		
    27e4:	8b 9a       	sbi	0x11, 3	; 17
		
		PORT_ESC   &= ~ (1 << PIN_ESC);
    27e6:	94 98       	cbi	0x12, 4	; 18
		PORT_DOWN  &= ~ (1 << PIN_DOWN);
    27e8:	96 98       	cbi	0x12, 6	; 18
		PORT_UP    &= ~ (1 << PIN_UP);
    27ea:	95 98       	cbi	0x12, 5	; 18
		PORT_ENTER &= ~ (1 << PIN_ENTER);
    27ec:	97 98       	cbi	0x12, 7	; 18
		
		DDR_ESC   |= (1 << PIN_ESC);
    27ee:	8c 9a       	sbi	0x11, 4	; 17
		DDR_DOWN  |= (1 << PIN_DOWN);
    27f0:	8e 9a       	sbi	0x11, 6	; 17
		DDR_UP    |= (1 << PIN_UP);
    27f2:	8d 9a       	sbi	0x11, 5	; 17
		DDR_ENTER |= (1 << PIN_ENTER);
    27f4:	8f 9a       	sbi	0x11, 7	; 17
    27f6:	08 95       	ret

000027f8 <_GLOBAL__sub_I__Z30Int0Ini_interrupt_falling_edgev>:
	else return false;
}



repeatingHandler sw_button_action;
    27f8:	8a ec       	ldi	r24, 0xCA	; 202
    27fa:	93 e0       	ldi	r25, 0x03	; 3
    27fc:	0e 94 09 0a 	call	0x1412	; 0x1412 <_ZN16repeatingHandlerC1Ev>
    2800:	08 95       	ret

00002802 <_GLOBAL__sub_D__Z30Int0Ini_interrupt_falling_edgev>:
    2802:	8a ec       	ldi	r24, 0xCA	; 202
    2804:	93 e0       	ldi	r25, 0x03	; 3
    2806:	0e 94 10 0a 	call	0x1420	; 0x1420 <_ZN16repeatingHandlerD1Ev>
    280a:	08 95       	ret

0000280c <_Z11GetADCValuec4Vref>:
  



float GetADCValue (char the_pin, Vref V_ref)
{
    280c:	0f 93       	push	r16
    280e:	1f 93       	push	r17
	ADCSRA |= (0<<ADEN);		// Виключаємо ацп, запобігання: якщо якимось чином ацп було викликано іншими функціями.
    2810:	96 b1       	in	r25, 0x06	; 6
    2812:	96 b9       	out	0x06, r25	; 6
	ADMUX  &= 0b11110000;   // Скинути налаштування каналу ADC, default adc0:  MUX3=0  MUX2=0 MUX1=0 MUX0=0  
    2814:	97 b1       	in	r25, 0x07	; 7
    2816:	90 7f       	andi	r25, 0xF0	; 240
    2818:	97 b9       	out	0x07, r25	; 7
	switch (the_pin)  // заданий пін встановлюємо як вхід
    281a:	82 30       	cpi	r24, 0x02	; 2
    281c:	99 f0       	breq	.+38     	; 0x2844 <_Z11GetADCValuec4Vref+0x38>
    281e:	28 f4       	brcc	.+10     	; 0x282a <_Z11GetADCValuec4Vref+0x1e>
    2820:	88 23       	and	r24, r24
    2822:	49 f0       	breq	.+18     	; 0x2836 <_Z11GetADCValuec4Vref+0x2a>
    2824:	81 30       	cpi	r24, 0x01	; 1
    2826:	51 f0       	breq	.+20     	; 0x283c <_Z11GetADCValuec4Vref+0x30>
    2828:	20 c0       	rjmp	.+64     	; 0x286a <_Z11GetADCValuec4Vref+0x5e>
    282a:	84 30       	cpi	r24, 0x04	; 4
    282c:	a9 f0       	breq	.+42     	; 0x2858 <_Z11GetADCValuec4Vref+0x4c>
    282e:	70 f0       	brcs	.+28     	; 0x284c <_Z11GetADCValuec4Vref+0x40>
    2830:	85 30       	cpi	r24, 0x05	; 5
    2832:	b1 f0       	breq	.+44     	; 0x2860 <_Z11GetADCValuec4Vref+0x54>
    2834:	1a c0       	rjmp	.+52     	; 0x286a <_Z11GetADCValuec4Vref+0x5e>
	{
		
		
		case 0:
		DDR_ADC &=  ~(1<<PORTA0); //  MUX3= 0  MUX2= 0 MUX1= 0 MUX0= 0   (adc0)
    2836:	d0 98       	cbi	0x1a, 0	; 26
		PORT_ADC &= ~(1<<PORTA0);
    2838:	d8 98       	cbi	0x1b, 0	; 27
		break;
    283a:	17 c0       	rjmp	.+46     	; 0x286a <_Z11GetADCValuec4Vref+0x5e>
		
		case 1:
		DDR_ADC &=  ~(1<<PORTA1);
    283c:	d1 98       	cbi	0x1a, 1	; 26
		PORT_ADC &= ~(1<<PORTA1);			
    283e:	d9 98       	cbi	0x1b, 1	; 27
		ADMUX  |= (1<<MUX0);	//  MUX3= 0  MUX2= 0 MUX1= 0 MUX0= 1   (adc1)
    2840:	38 9a       	sbi	0x07, 0	; 7
		break; 
    2842:	13 c0       	rjmp	.+38     	; 0x286a <_Z11GetADCValuec4Vref+0x5e>
		
		case 2:
		DDR_ADC &=  ~(1<<PORTA2);
    2844:	d2 98       	cbi	0x1a, 2	; 26
		PORT_ADC &= ~(1<<PORTA2);
    2846:	da 98       	cbi	0x1b, 2	; 27
		ADMUX  |= (1<<MUX1);  //  MUX3= 0  MUX2= 0 MUX1= 1 MUX0= 0   (adc2)
    2848:	39 9a       	sbi	0x07, 1	; 7
		break;
    284a:	0f c0       	rjmp	.+30     	; 0x286a <_Z11GetADCValuec4Vref+0x5e>
		
		case 3:
		DDR_ADC &=  ~(1<<PORTA3);
    284c:	d3 98       	cbi	0x1a, 3	; 26
		PORT_ADC &= ~(1<<PORTA3);
    284e:	db 98       	cbi	0x1b, 3	; 27
		ADMUX  |= (1<<MUX1)|(1<<MUX0); //  MUX3= 0  MUX2= 0 MUX1= 1 MUX0= 1   (adc3)
    2850:	87 b1       	in	r24, 0x07	; 7
    2852:	83 60       	ori	r24, 0x03	; 3
    2854:	87 b9       	out	0x07, r24	; 7
		break;
    2856:	09 c0       	rjmp	.+18     	; 0x286a <_Z11GetADCValuec4Vref+0x5e>
		
		case 4:
		DDR_ADC &=  ~(1<<PORTA4);
    2858:	d4 98       	cbi	0x1a, 4	; 26
		PORT_ADC &= ~(1<<PORTA4);
    285a:	dc 98       	cbi	0x1b, 4	; 27
		ADMUX  |= (1<<MUX2); //  MUX3= 0  MUX2= 1 MUX1= 0 MUX0= 0   (adc4)
    285c:	3a 9a       	sbi	0x07, 2	; 7
		break;
    285e:	05 c0       	rjmp	.+10     	; 0x286a <_Z11GetADCValuec4Vref+0x5e>
		
		case 5:
		DDR_ADC &=  ~(1<<PORTA5);
    2860:	d5 98       	cbi	0x1a, 5	; 26
		PORT_ADC &= ~(1<<PORTA5);
    2862:	dd 98       	cbi	0x1b, 5	; 27
		ADMUX  |= (1<<MUX2)|(1<<MUX0); //  MUX3= 0  MUX2= 1 MUX1= 0 MUX0= 1   (adc5)
    2864:	87 b1       	in	r24, 0x07	; 7
    2866:	85 60       	ori	r24, 0x05	; 5
    2868:	87 b9       	out	0x07, r24	; 7
		break;	
		
		}
	// Налаштовуємо АЦП
	
	ADMUX  |= (1<<ADLAR); // Вибираємо ліве розміщення значення АЦП (8біт без двох перших розрядів, без них похибка незначна)
    286a:	3d 9a       	sbi	0x07, 5	; 7
	
	ADCSRA |= (1<<ADPS2)|(1<<ADPS0);  //Встановлюємо prescalor рівним 16 (біти ADPS2 =1, ADPS1 = 0, ADPS0 = 0)
    286c:	86 b1       	in	r24, 0x06	; 6
    286e:	85 60       	ori	r24, 0x05	; 5
    2870:	86 b9       	out	0x06, r24	; 6
	ADCSRA &= ~(1<<ADPS1);
    2872:	31 98       	cbi	0x06, 1	; 6
	// таким чином маємо частоту розбиття 1 000 000/16 = 62 500 Гц або 62.5кГц
	// це тільки для безперервного режиму
	
	switch (V_ref)
    2874:	66 23       	and	r22, r22
    2876:	19 f0       	breq	.+6      	; 0x287e <_Z11GetADCValuec4Vref+0x72>
    2878:	61 30       	cpi	r22, 0x01	; 1
    287a:	29 f0       	breq	.+10     	; 0x2886 <_Z11GetADCValuec4Vref+0x7a>
    287c:	06 c0       	rjmp	.+12     	; 0x288a <_Z11GetADCValuec4Vref+0x7e>
	{
		case Vinternal:
			ADMUX |= (1<<REFS0)|(1<<REFS1);  // Встановлюємо, що максимальне значення АЦП рівне напрузі  V=2.56В (REFS1=0),
    287e:	87 b1       	in	r24, 0x07	; 7
    2880:	80 6c       	ori	r24, 0xC0	; 192
    2882:	87 b9       	out	0x07, r24	; 7
			break;
    2884:	02 c0       	rjmp	.+4      	; 0x288a <_Z11GetADCValuec4Vref+0x7e>
		case VCC:
			ADMUX &= ~(1<<REFS1); // Встановлюємо, що максимальне значення АЦП рівне напрузі на АREF VCC (REFS1=0),
    2886:	3f 98       	cbi	0x07, 7	; 7
			ADMUX &= ~(1<<REFS0);
    2888:	3e 98       	cbi	0x07, 6	; 7
			//ADMUX &= ~(1<<REFS1);     // AVCC with external capacitor at AREF pin
			//ADMUX |= (1<<REFS0);  
		
	}
		
	ADCSRA |= (1<<ADEN);    //Включаємо АЦП
    288a:	37 9a       	sbi	0x06, 7	; 6
	ADCSRA |= (1 << ADSC);    // Start the ADC conversion
    288c:	36 9a       	sbi	0x06, 6	; 6
	
	while(ADCSRA & (1 << ADSC));   //  this line waits for the ADC to finish
    288e:	36 99       	sbic	0x06, 6	; 6
    2890:	fe cf       	rjmp	.-4      	; 0x288e <_Z11GetADCValuec4Vref+0x82>
	
	// отримати значення з АЦП
	long int ADC_value_L = ADCL;
    2892:	84 b1       	in	r24, 0x04	; 4
    2894:	90 e0       	ldi	r25, 0x00	; 0
    2896:	a0 e0       	ldi	r26, 0x00	; 0
    2898:	b0 e0       	ldi	r27, 0x00	; 0
	ADC_value_L = ADC_value_L >> 6;
	long int ADC_value_H = ADCH;
    289a:	45 b1       	in	r20, 0x05	; 5
    289c:	50 e0       	ldi	r21, 0x00	; 0
    289e:	60 e0       	ldi	r22, 0x00	; 0
    28a0:	70 e0       	ldi	r23, 0x00	; 0
	ADC_value_H =  ADC_value_H << 2;
    28a2:	44 0f       	add	r20, r20
    28a4:	55 1f       	adc	r21, r21
    28a6:	66 1f       	adc	r22, r22
    28a8:	77 1f       	adc	r23, r23
    28aa:	44 0f       	add	r20, r20
    28ac:	55 1f       	adc	r21, r21
    28ae:	66 1f       	adc	r22, r22
    28b0:	77 1f       	adc	r23, r23
	
	while(ADCSRA & (1 << ADSC));   //  this line waits for the ADC to finish
	
	// отримати значення з АЦП
	long int ADC_value_L = ADCL;
	ADC_value_L = ADC_value_L >> 6;
    28b2:	68 94       	set
    28b4:	15 f8       	bld	r1, 5
    28b6:	b5 95       	asr	r27
    28b8:	a7 95       	ror	r26
    28ba:	97 95       	ror	r25
    28bc:	87 95       	ror	r24
    28be:	16 94       	lsr	r1
    28c0:	d1 f7       	brne	.-12     	; 0x28b6 <_Z11GetADCValuec4Vref+0xaa>
	long int ADC_value_H = ADCH;
	ADC_value_H =  ADC_value_H << 2;
	long int ADC_value = ADC_value_L|ADC_value_H;
    28c2:	8a 01       	movw	r16, r20
    28c4:	9b 01       	movw	r18, r22
    28c6:	08 2b       	or	r16, r24
    28c8:	19 2b       	or	r17, r25
    28ca:	2a 2b       	or	r18, r26
    28cc:	3b 2b       	or	r19, r27
    28ce:	c9 01       	movw	r24, r18
    28d0:	b8 01       	movw	r22, r16
	
	return ADC_value;
    28d2:	0e 94 a9 18 	call	0x3152	; 0x3152 <__floatsisf>
}
    28d6:	1f 91       	pop	r17
    28d8:	0f 91       	pop	r16
    28da:	08 95       	ret

000028dc <_Z18GetAverageADCValuecc4Vref>:
//**********************************************************************************************
// the_pin - ніжка, на якій давач
// the_range- скільки значень виміряти, щоб вирухвати середнє

float GetAverageADCValue (char the_pin, char the_range, Vref V_ref)
{
    28dc:	9f 92       	push	r9
    28de:	af 92       	push	r10
    28e0:	bf 92       	push	r11
    28e2:	cf 92       	push	r12
    28e4:	df 92       	push	r13
    28e6:	ef 92       	push	r14
    28e8:	ff 92       	push	r15
    28ea:	0f 93       	push	r16
    28ec:	1f 93       	push	r17
    28ee:	cf 93       	push	r28
    28f0:	df 93       	push	r29
    28f2:	b8 2e       	mov	r11, r24
    28f4:	96 2e       	mov	r9, r22
    28f6:	a4 2e       	mov	r10, r20
	
	float ADC_value_Sum = 0; // змінна, яка використовується для сумуваня значень ацп
	
	for (int i=0;i<the_range;i++)
    28f8:	06 2f       	mov	r16, r22
    28fa:	10 e0       	ldi	r17, 0x00	; 0
    28fc:	10 16       	cp	r1, r16
    28fe:	11 06       	cpc	r1, r17
    2900:	b4 f4       	brge	.+44     	; 0x292e <_Z18GetAverageADCValuecc4Vref+0x52>
    2902:	c0 e0       	ldi	r28, 0x00	; 0
    2904:	d0 e0       	ldi	r29, 0x00	; 0
    2906:	c1 2c       	mov	r12, r1
    2908:	d1 2c       	mov	r13, r1
    290a:	76 01       	movw	r14, r12
	{
		ADC_value_Sum += GetADCValue(the_pin, V_ref);    // при кожній операції розрахунку ацп сумувати значення
    290c:	6a 2d       	mov	r22, r10
    290e:	8b 2d       	mov	r24, r11
    2910:	0e 94 06 14 	call	0x280c	; 0x280c <_Z11GetADCValuec4Vref>
    2914:	9b 01       	movw	r18, r22
    2916:	ac 01       	movw	r20, r24
    2918:	c7 01       	movw	r24, r14
    291a:	b6 01       	movw	r22, r12
    291c:	0e 94 95 17 	call	0x2f2a	; 0x2f2a <__addsf3>
    2920:	6b 01       	movw	r12, r22
    2922:	7c 01       	movw	r14, r24
float GetAverageADCValue (char the_pin, char the_range, Vref V_ref)
{
	
	float ADC_value_Sum = 0; // змінна, яка використовується для сумуваня значень ацп
	
	for (int i=0;i<the_range;i++)
    2924:	21 96       	adiw	r28, 0x01	; 1
    2926:	c0 17       	cp	r28, r16
    2928:	d1 07       	cpc	r29, r17
    292a:	81 f7       	brne	.-32     	; 0x290c <_Z18GetAverageADCValuecc4Vref+0x30>
    292c:	03 c0       	rjmp	.+6      	; 0x2934 <_Z18GetAverageADCValuecc4Vref+0x58>
// the_range- скільки значень виміряти, щоб вирухвати середнє

float GetAverageADCValue (char the_pin, char the_range, Vref V_ref)
{
	
	float ADC_value_Sum = 0; // змінна, яка використовується для сумуваня значень ацп
    292e:	c1 2c       	mov	r12, r1
    2930:	d1 2c       	mov	r13, r1
    2932:	76 01       	movw	r14, r12
	for (int i=0;i<the_range;i++)
	{
		ADC_value_Sum += GetADCValue(the_pin, V_ref);    // при кожній операції розрахунку ацп сумувати значення
	}
	
	float y =  static_cast<float>(ADC_value_Sum)/static_cast<float>(the_range); // конвертація у флоат тип, щоб результат був флоат
    2934:	69 2d       	mov	r22, r9
    2936:	70 e0       	ldi	r23, 0x00	; 0
    2938:	80 e0       	ldi	r24, 0x00	; 0
    293a:	90 e0       	ldi	r25, 0x00	; 0
    293c:	0e 94 a7 18 	call	0x314e	; 0x314e <__floatunsisf>
    2940:	9b 01       	movw	r18, r22
    2942:	ac 01       	movw	r20, r24
    2944:	c7 01       	movw	r24, r14
    2946:	b6 01       	movw	r22, r12
    2948:	0e 94 06 18 	call	0x300c	; 0x300c <__divsf3>
	
	return y;
		
}
    294c:	df 91       	pop	r29
    294e:	cf 91       	pop	r28
    2950:	1f 91       	pop	r17
    2952:	0f 91       	pop	r16
    2954:	ff 90       	pop	r15
    2956:	ef 90       	pop	r14
    2958:	df 90       	pop	r13
    295a:	cf 90       	pop	r12
    295c:	bf 90       	pop	r11
    295e:	af 90       	pop	r10
    2960:	9f 90       	pop	r9
    2962:	08 95       	ret

00002964 <_Z14SegmentOnCurvefPfi>:
//Дата датчика
float our_sensorDeg[HEIGHT] =   {-20, -10, 0,   10,  20,  30,  40,  50,  60,  70,  80,  90};
float our_sensorRes [HEIGHT]   = {1372,1495,1630,1772,1922,2080,2245,2417,2597,2785,2980,3182};


int SegmentOnCurve (float the_sensorR, float *ptr_the_sensorRes, int h) {
    2964:	af 92       	push	r10
    2966:	bf 92       	push	r11
    2968:	cf 92       	push	r12
    296a:	df 92       	push	r13
    296c:	ef 92       	push	r14
    296e:	ff 92       	push	r15
    2970:	0f 93       	push	r16
    2972:	1f 93       	push	r17
    2974:	cf 93       	push	r28
    2976:	df 93       	push	r29
    2978:	6b 01       	movw	r12, r22
    297a:	7c 01       	movw	r14, r24
    297c:	8a 01       	movw	r16, r20
    297e:	e9 01       	movw	r28, r18
	
	int k; // в цю змінну запишемо номер проміжку куди потрапить опір датчика
	
	if (the_sensorR<ptr_the_sensorRes[0]) {
    2980:	9b 01       	movw	r18, r22
    2982:	ac 01       	movw	r20, r24
    2984:	f8 01       	movw	r30, r16
    2986:	60 81       	ld	r22, Z
    2988:	71 81       	ldd	r23, Z+1	; 0x01
    298a:	82 81       	ldd	r24, Z+2	; 0x02
    298c:	93 81       	ldd	r25, Z+3	; 0x03
    298e:	0e 94 59 19 	call	0x32b2	; 0x32b2 <__gesf2>
    2992:	18 16       	cp	r1, r24
    2994:	0c f4       	brge	.+2      	; 0x2998 <_Z14SegmentOnCurvefPfi+0x34>
    2996:	3e c0       	rjmp	.+124    	; 0x2a14 <_Z14SegmentOnCurvefPfi+0xb0>
		k = 0;
		return k;
	}
	
	if (the_sensorR>=ptr_the_sensorRes[h-1]) {
    2998:	fe 01       	movw	r30, r28
    299a:	e1 50       	subi	r30, 0x01	; 1
    299c:	f0 4c       	sbci	r31, 0xC0	; 192
    299e:	ee 0f       	add	r30, r30
    29a0:	ff 1f       	adc	r31, r31
    29a2:	ee 0f       	add	r30, r30
    29a4:	ff 1f       	adc	r31, r31
    29a6:	e0 0f       	add	r30, r16
    29a8:	f1 1f       	adc	r31, r17
    29aa:	20 81       	ld	r18, Z
    29ac:	31 81       	ldd	r19, Z+1	; 0x01
    29ae:	42 81       	ldd	r20, Z+2	; 0x02
    29b0:	53 81       	ldd	r21, Z+3	; 0x03
    29b2:	c7 01       	movw	r24, r14
    29b4:	b6 01       	movw	r22, r12
    29b6:	0e 94 59 19 	call	0x32b2	; 0x32b2 <__gesf2>
    29ba:	88 23       	and	r24, r24
    29bc:	44 f4       	brge	.+16     	; 0x29ce <_Z14SegmentOnCurvefPfi+0x6a>
		k = h-2;
		return k;
	}
	
	for (int i=0; i<=h-2; i++) {
    29be:	5e 01       	movw	r10, r28
    29c0:	f2 e0       	ldi	r31, 0x02	; 2
    29c2:	af 1a       	sub	r10, r31
    29c4:	b1 08       	sbc	r11, r1
    29c6:	32 f4       	brpl	.+12     	; 0x29d4 <_Z14SegmentOnCurvefPfi+0x70>
			k=i;   //записати в змінну k номер проміжку
			
			return k;
		}
	}
	return 0;
    29c8:	80 e0       	ldi	r24, 0x00	; 0
    29ca:	90 e0       	ldi	r25, 0x00	; 0
    29cc:	27 c0       	rjmp	.+78     	; 0x2a1c <_Z14SegmentOnCurvefPfi+0xb8>
		return k;
	}
	
	if (the_sensorR>=ptr_the_sensorRes[h-1]) {
		k = h-2;
		return k;
    29ce:	ce 01       	movw	r24, r28
    29d0:	02 97       	sbiw	r24, 0x02	; 2
    29d2:	24 c0       	rjmp	.+72     	; 0x2a1c <_Z14SegmentOnCurvefPfi+0xb8>
	}
	
	for (int i=0; i<=h-2; i++) {
    29d4:	c0 e0       	ldi	r28, 0x00	; 0
    29d6:	d0 e0       	ldi	r29, 0x00	; 0
		if ( (the_sensorR >= ptr_the_sensorRes[i]) && (the_sensorR<ptr_the_sensorRes[i+1]) )	 {
    29d8:	f8 01       	movw	r30, r16
    29da:	21 91       	ld	r18, Z+
    29dc:	31 91       	ld	r19, Z+
    29de:	41 91       	ld	r20, Z+
    29e0:	51 91       	ld	r21, Z+
    29e2:	8f 01       	movw	r16, r30
    29e4:	c7 01       	movw	r24, r14
    29e6:	b6 01       	movw	r22, r12
    29e8:	0e 94 59 19 	call	0x32b2	; 0x32b2 <__gesf2>
    29ec:	88 23       	and	r24, r24
    29ee:	5c f0       	brlt	.+22     	; 0x2a06 <_Z14SegmentOnCurvefPfi+0xa2>
    29f0:	f8 01       	movw	r30, r16
    29f2:	20 81       	ld	r18, Z
    29f4:	31 81       	ldd	r19, Z+1	; 0x01
    29f6:	42 81       	ldd	r20, Z+2	; 0x02
    29f8:	53 81       	ldd	r21, Z+3	; 0x03
    29fa:	c7 01       	movw	r24, r14
    29fc:	b6 01       	movw	r22, r12
    29fe:	0e 94 01 18 	call	0x3002	; 0x3002 <__cmpsf2>
    2a02:	88 23       	and	r24, r24
    2a04:	54 f0       	brlt	.+20     	; 0x2a1a <_Z14SegmentOnCurvefPfi+0xb6>
	if (the_sensorR>=ptr_the_sensorRes[h-1]) {
		k = h-2;
		return k;
	}
	
	for (int i=0; i<=h-2; i++) {
    2a06:	21 96       	adiw	r28, 0x01	; 1
    2a08:	ac 16       	cp	r10, r28
    2a0a:	bd 06       	cpc	r11, r29
    2a0c:	2c f7       	brge	.-54     	; 0x29d8 <_Z14SegmentOnCurvefPfi+0x74>
			k=i;   //записати в змінну k номер проміжку
			
			return k;
		}
	}
	return 0;
    2a0e:	80 e0       	ldi	r24, 0x00	; 0
    2a10:	90 e0       	ldi	r25, 0x00	; 0
    2a12:	04 c0       	rjmp	.+8      	; 0x2a1c <_Z14SegmentOnCurvefPfi+0xb8>
	
	int k; // в цю змінну запишемо номер проміжку куди потрапить опір датчика
	
	if (the_sensorR<ptr_the_sensorRes[0]) {
		k = 0;
		return k;
    2a14:	80 e0       	ldi	r24, 0x00	; 0
    2a16:	90 e0       	ldi	r25, 0x00	; 0
    2a18:	01 c0       	rjmp	.+2      	; 0x2a1c <_Z14SegmentOnCurvefPfi+0xb8>
    2a1a:	ce 01       	movw	r24, r28
			
			return k;
		}
	}
	return 0;
}
    2a1c:	df 91       	pop	r29
    2a1e:	cf 91       	pop	r28
    2a20:	1f 91       	pop	r17
    2a22:	0f 91       	pop	r16
    2a24:	ff 90       	pop	r15
    2a26:	ef 90       	pop	r14
    2a28:	df 90       	pop	r13
    2a2a:	cf 90       	pop	r12
    2a2c:	bf 90       	pop	r11
    2a2e:	af 90       	pop	r10
    2a30:	08 95       	ret

00002a32 <_Z10YfromXLinefffff>:

float YfromXLine (float x1, float y1, float x2, float y2, float x) {
    2a32:	4f 92       	push	r4
    2a34:	5f 92       	push	r5
    2a36:	6f 92       	push	r6
    2a38:	7f 92       	push	r7
    2a3a:	af 92       	push	r10
    2a3c:	bf 92       	push	r11
    2a3e:	cf 92       	push	r12
    2a40:	df 92       	push	r13
    2a42:	ef 92       	push	r14
    2a44:	ff 92       	push	r15
    2a46:	0f 93       	push	r16
    2a48:	1f 93       	push	r17
    2a4a:	cf 93       	push	r28
    2a4c:	df 93       	push	r29
    2a4e:	cd b7       	in	r28, 0x3d	; 61
    2a50:	de b7       	in	r29, 0x3e	; 62
    2a52:	2c 97       	sbiw	r28, 0x0c	; 12
    2a54:	0f b6       	in	r0, 0x3f	; 63
    2a56:	f8 94       	cli
    2a58:	de bf       	out	0x3e, r29	; 62
    2a5a:	0f be       	out	0x3f, r0	; 63
    2a5c:	cd bf       	out	0x3d, r28	; 61
    2a5e:	2b 01       	movw	r4, r22
    2a60:	3c 01       	movw	r6, r24
    2a62:	2d 83       	std	Y+5, r18	; 0x05
    2a64:	3e 83       	std	Y+6, r19	; 0x06
    2a66:	4f 83       	std	Y+7, r20	; 0x07
    2a68:	58 87       	std	Y+8, r21	; 0x08
    2a6a:	e9 82       	std	Y+1, r14	; 0x01
    2a6c:	fa 82       	std	Y+2, r15	; 0x02
    2a6e:	0b 83       	std	Y+3, r16	; 0x03
    2a70:	1c 83       	std	Y+4, r17	; 0x04
	// перевірка на ділення на нулль
	if (x2==x1) {
    2a72:	9b 01       	movw	r18, r22
    2a74:	ac 01       	movw	r20, r24
    2a76:	c8 01       	movw	r24, r16
    2a78:	b7 01       	movw	r22, r14
    2a7a:	0e 94 01 18 	call	0x3002	; 0x3002 <__cmpsf2>
    2a7e:	81 11       	cpse	r24, r1
    2a80:	09 c0       	rjmp	.+18     	; 0x2a94 <_Z10YfromXLinefffff+0x62>
		return tflow_max_G;  // крива задана невірно, задати 50 град темп.
    2a82:	50 91 aa 00 	lds	r21, 0x00AA
    2a86:	40 91 ab 00 	lds	r20, 0x00AB
    2a8a:	30 91 ac 00 	lds	r19, 0x00AC
    2a8e:	20 91 ad 00 	lds	r18, 0x00AD
    2a92:	36 c0       	rjmp	.+108    	; 0x2b00 <_Z10YfromXLinefffff+0xce>
	}
	float m = (y2 - y1)/(x2-x1);
	float y = m* (x - x1) + y1;
    2a94:	a3 01       	movw	r20, r6
    2a96:	92 01       	movw	r18, r4
    2a98:	6d 8d       	ldd	r22, Y+29	; 0x1d
    2a9a:	7e 8d       	ldd	r23, Y+30	; 0x1e
    2a9c:	8f 8d       	ldd	r24, Y+31	; 0x1f
    2a9e:	98 a1       	ldd	r25, Y+32	; 0x20
    2aa0:	0e 94 94 17 	call	0x2f28	; 0x2f28 <__subsf3>
    2aa4:	69 87       	std	Y+9, r22	; 0x09
    2aa6:	7a 87       	std	Y+10, r23	; 0x0a
    2aa8:	8b 87       	std	Y+11, r24	; 0x0b
    2aaa:	9c 87       	std	Y+12, r25	; 0x0c
float YfromXLine (float x1, float y1, float x2, float y2, float x) {
	// перевірка на ділення на нулль
	if (x2==x1) {
		return tflow_max_G;  // крива задана невірно, задати 50 град темп.
	}
	float m = (y2 - y1)/(x2-x1);
    2aac:	2d 81       	ldd	r18, Y+5	; 0x05
    2aae:	3e 81       	ldd	r19, Y+6	; 0x06
    2ab0:	4f 81       	ldd	r20, Y+7	; 0x07
    2ab2:	58 85       	ldd	r21, Y+8	; 0x08
    2ab4:	c6 01       	movw	r24, r12
    2ab6:	b5 01       	movw	r22, r10
    2ab8:	0e 94 94 17 	call	0x2f28	; 0x2f28 <__subsf3>
    2abc:	6b 01       	movw	r12, r22
    2abe:	7c 01       	movw	r14, r24
    2ac0:	a3 01       	movw	r20, r6
    2ac2:	92 01       	movw	r18, r4
    2ac4:	69 81       	ldd	r22, Y+1	; 0x01
    2ac6:	7a 81       	ldd	r23, Y+2	; 0x02
    2ac8:	8b 81       	ldd	r24, Y+3	; 0x03
    2aca:	9c 81       	ldd	r25, Y+4	; 0x04
    2acc:	0e 94 94 17 	call	0x2f28	; 0x2f28 <__subsf3>
    2ad0:	9b 01       	movw	r18, r22
    2ad2:	ac 01       	movw	r20, r24
    2ad4:	c7 01       	movw	r24, r14
    2ad6:	b6 01       	movw	r22, r12
    2ad8:	0e 94 06 18 	call	0x300c	; 0x300c <__divsf3>
    2adc:	9b 01       	movw	r18, r22
    2ade:	ac 01       	movw	r20, r24
	float y = m* (x - x1) + y1;
    2ae0:	69 85       	ldd	r22, Y+9	; 0x09
    2ae2:	7a 85       	ldd	r23, Y+10	; 0x0a
    2ae4:	8b 85       	ldd	r24, Y+11	; 0x0b
    2ae6:	9c 85       	ldd	r25, Y+12	; 0x0c
    2ae8:	0e 94 5e 19 	call	0x32bc	; 0x32bc <__mulsf3>
    2aec:	2d 81       	ldd	r18, Y+5	; 0x05
    2aee:	3e 81       	ldd	r19, Y+6	; 0x06
    2af0:	4f 81       	ldd	r20, Y+7	; 0x07
    2af2:	58 85       	ldd	r21, Y+8	; 0x08
    2af4:	0e 94 95 17 	call	0x2f2a	; 0x2f2a <__addsf3>
	
	return y;
    2af8:	56 2f       	mov	r21, r22
    2afa:	47 2f       	mov	r20, r23
    2afc:	38 2f       	mov	r19, r24
    2afe:	29 2f       	mov	r18, r25
}
    2b00:	65 2f       	mov	r22, r21
    2b02:	74 2f       	mov	r23, r20
    2b04:	83 2f       	mov	r24, r19
    2b06:	92 2f       	mov	r25, r18
    2b08:	2c 96       	adiw	r28, 0x0c	; 12
    2b0a:	0f b6       	in	r0, 0x3f	; 63
    2b0c:	f8 94       	cli
    2b0e:	de bf       	out	0x3e, r29	; 62
    2b10:	0f be       	out	0x3f, r0	; 63
    2b12:	cd bf       	out	0x3d, r28	; 61
    2b14:	df 91       	pop	r29
    2b16:	cf 91       	pop	r28
    2b18:	1f 91       	pop	r17
    2b1a:	0f 91       	pop	r16
    2b1c:	ff 90       	pop	r15
    2b1e:	ef 90       	pop	r14
    2b20:	df 90       	pop	r13
    2b22:	cf 90       	pop	r12
    2b24:	bf 90       	pop	r11
    2b26:	af 90       	pop	r10
    2b28:	7f 90       	pop	r7
    2b2a:	6f 90       	pop	r6
    2b2c:	5f 90       	pop	r5
    2b2e:	4f 90       	pop	r4
    2b30:	08 95       	ret

00002b32 <_Z36ConvertSensorResistanceToTemperaturefPfS_i>:

float ConvertSensorResistanceToTemperature (float the_sensorR, float *ptr_the_sensorRes, float *ptr_the_sensorDeg, int h)
{
    2b32:	4f 92       	push	r4
    2b34:	5f 92       	push	r5
    2b36:	6f 92       	push	r6
    2b38:	7f 92       	push	r7
    2b3a:	8f 92       	push	r8
    2b3c:	9f 92       	push	r9
    2b3e:	af 92       	push	r10
    2b40:	bf 92       	push	r11
    2b42:	cf 92       	push	r12
    2b44:	df 92       	push	r13
    2b46:	ef 92       	push	r14
    2b48:	ff 92       	push	r15
    2b4a:	0f 93       	push	r16
    2b4c:	1f 93       	push	r17
    2b4e:	cf 93       	push	r28
    2b50:	df 93       	push	r29
    2b52:	96 2e       	mov	r9, r22
    2b54:	87 2e       	mov	r8, r23
    2b56:	78 2e       	mov	r7, r24
    2b58:	69 2e       	mov	r6, r25
    2b5a:	2a 01       	movw	r4, r20
    2b5c:	e9 01       	movw	r28, r18
	
	int k = SegmentOnCurve(the_sensorR, ptr_the_sensorRes,HEIGHT);
    2b5e:	2c e0       	ldi	r18, 0x0C	; 12
    2b60:	30 e0       	ldi	r19, 0x00	; 0
    2b62:	0e 94 b2 14 	call	0x2964	; 0x2964 <_Z14SegmentOnCurvefPfi>
	
	float y = YfromXLine(ptr_the_sensorRes[k],ptr_the_sensorDeg[k],ptr_the_sensorRes[k+1],ptr_the_sensorDeg[k+1], the_sensorR);
    2b66:	01 96       	adiw	r24, 0x01	; 1
    2b68:	88 0f       	add	r24, r24
    2b6a:	99 1f       	adc	r25, r25
    2b6c:	88 0f       	add	r24, r24
    2b6e:	99 1f       	adc	r25, r25
    2b70:	bc 01       	movw	r22, r24
    2b72:	64 50       	subi	r22, 0x04	; 4
    2b74:	71 09       	sbc	r23, r1
    2b76:	fe 01       	movw	r30, r28
    2b78:	e8 0f       	add	r30, r24
    2b7a:	f9 1f       	adc	r31, r25
    2b7c:	a0 80       	ld	r10, Z
    2b7e:	b1 80       	ldd	r11, Z+1	; 0x01
    2b80:	c2 80       	ldd	r12, Z+2	; 0x02
    2b82:	d3 80       	ldd	r13, Z+3	; 0x03
    2b84:	f2 01       	movw	r30, r4
    2b86:	e8 0f       	add	r30, r24
    2b88:	f9 1f       	adc	r31, r25
    2b8a:	e0 80       	ld	r14, Z
    2b8c:	f1 80       	ldd	r15, Z+1	; 0x01
    2b8e:	02 81       	ldd	r16, Z+2	; 0x02
    2b90:	13 81       	ldd	r17, Z+3	; 0x03
    2b92:	c6 0f       	add	r28, r22
    2b94:	d7 1f       	adc	r29, r23
    2b96:	28 81       	ld	r18, Y
    2b98:	39 81       	ldd	r19, Y+1	; 0x01
    2b9a:	4a 81       	ldd	r20, Y+2	; 0x02
    2b9c:	5b 81       	ldd	r21, Y+3	; 0x03
    2b9e:	f2 01       	movw	r30, r4
    2ba0:	e6 0f       	add	r30, r22
    2ba2:	f7 1f       	adc	r31, r23
    2ba4:	60 81       	ld	r22, Z
    2ba6:	71 81       	ldd	r23, Z+1	; 0x01
    2ba8:	82 81       	ldd	r24, Z+2	; 0x02
    2baa:	93 81       	ldd	r25, Z+3	; 0x03
    2bac:	6f 92       	push	r6
    2bae:	7f 92       	push	r7
    2bb0:	8f 92       	push	r8
    2bb2:	9f 92       	push	r9
    2bb4:	0e 94 19 15 	call	0x2a32	; 0x2a32 <_Z10YfromXLinefffff>
    2bb8:	0f 90       	pop	r0
    2bba:	0f 90       	pop	r0
    2bbc:	0f 90       	pop	r0
    2bbe:	0f 90       	pop	r0
	return y;
}
    2bc0:	df 91       	pop	r29
    2bc2:	cf 91       	pop	r28
    2bc4:	1f 91       	pop	r17
    2bc6:	0f 91       	pop	r16
    2bc8:	ff 90       	pop	r15
    2bca:	ef 90       	pop	r14
    2bcc:	df 90       	pop	r13
    2bce:	cf 90       	pop	r12
    2bd0:	bf 90       	pop	r11
    2bd2:	af 90       	pop	r10
    2bd4:	9f 90       	pop	r9
    2bd6:	8f 90       	pop	r8
    2bd8:	7f 90       	pop	r7
    2bda:	6f 90       	pop	r6
    2bdc:	5f 90       	pop	r5
    2bde:	4f 90       	pop	r4
    2be0:	08 95       	ret

00002be2 <_Z9GetSensorcf>:


float GetSensor (char the_pin, float correction)
 {			
    2be2:	cf 92       	push	r12
    2be4:	df 92       	push	r13
    2be6:	ef 92       	push	r14
    2be8:	ff 92       	push	r15
    2bea:	0f 93       	push	r16
    2bec:	1f 93       	push	r17
    2bee:	6a 01       	movw	r12, r20
    2bf0:	7b 01       	movw	r14, r22
	float sensor_resistance;
	float temperature;
	
	// ініціалізація одновимірного масиву вказівників на масив давача (в стеку)
		
	adc_value = GetAverageADCValue (the_pin, QUESTIONING_OF_SENSOR, VCC);
    2bf2:	41 e0       	ldi	r20, 0x01	; 1
    2bf4:	64 e6       	ldi	r22, 0x64	; 100
    2bf6:	0e 94 6e 14 	call	0x28dc	; 0x28dc <_Z18GetAverageADCValuecc4Vref>
    2bfa:	9b 01       	movw	r18, r22
    2bfc:	ac 01       	movw	r20, r24


float ConvertADC_ToResistanceUnits (float the_adc_value, float the_refV, float the_refR, float V )
{
	float R_sensor;   
	R_sensor = V*1024*the_refR/the_adc_value/the_refV-the_refR;  // формула виведена 
    2bfe:	60 e0       	ldi	r22, 0x00	; 0
    2c00:	7c ef       	ldi	r23, 0xFC	; 252
    2c02:	8c e3       	ldi	r24, 0x3C	; 60
    2c04:	9b e4       	ldi	r25, 0x4B	; 75
    2c06:	0e 94 06 18 	call	0x300c	; 0x300c <__divsf3>
    2c0a:	23 e3       	ldi	r18, 0x33	; 51
    2c0c:	33 e3       	ldi	r19, 0x33	; 51
    2c0e:	43 e8       	ldi	r20, 0x83	; 131
    2c10:	50 e4       	ldi	r21, 0x40	; 64
    2c12:	0e 94 06 18 	call	0x300c	; 0x300c <__divsf3>
    2c16:	20 e0       	ldi	r18, 0x00	; 0
    2c18:	30 e6       	ldi	r19, 0x60	; 96
    2c1a:	48 e3       	ldi	r20, 0x38	; 56
    2c1c:	55 e4       	ldi	r21, 0x45	; 69
    2c1e:	0e 94 94 17 	call	0x2f28	; 0x2f28 <__subsf3>
	
	// ініціалізація одновимірного масиву вказівників на масив давача (в стеку)
		
	adc_value = GetAverageADCValue (the_pin, QUESTIONING_OF_SENSOR, VCC);
	sensor_resistance = ConvertADC_ToResistanceUnits (adc_value, REFERENCE_VOLTAGE, REFERENCE_RESISTANCE,V_SENSOR);	
	temperature = ConvertSensorResistanceToTemperature (sensor_resistance, our_sensorRes, our_sensorDeg, HEIGHT);
    2c22:	0c e0       	ldi	r16, 0x0C	; 12
    2c24:	10 e0       	ldi	r17, 0x00	; 0
    2c26:	25 e5       	ldi	r18, 0x55	; 85
    2c28:	32 e0       	ldi	r19, 0x02	; 2
    2c2a:	45 e2       	ldi	r20, 0x25	; 37
    2c2c:	52 e0       	ldi	r21, 0x02	; 2
    2c2e:	0e 94 99 15 	call	0x2b32	; 0x2b32 <_Z36ConvertSensorResistanceToTemperaturefPfS_i>
	return  temperature+correction;
    2c32:	a7 01       	movw	r20, r14
    2c34:	96 01       	movw	r18, r12
    2c36:	0e 94 95 17 	call	0x2f2a	; 0x2f2a <__addsf3>
	
	
}
    2c3a:	1f 91       	pop	r17
    2c3c:	0f 91       	pop	r16
    2c3e:	ff 90       	pop	r15
    2c40:	ef 90       	pop	r14
    2c42:	df 90       	pop	r13
    2c44:	cf 90       	pop	r12
    2c46:	08 95       	ret

00002c48 <_Z9sensorErrf>:



void sensorErr (float sens_value)
{
    2c48:	cf 92       	push	r12
    2c4a:	df 92       	push	r13
    2c4c:	ef 92       	push	r14
    2c4e:	ff 92       	push	r15
    2c50:	6b 01       	movw	r12, r22
    2c52:	7c 01       	movw	r14, r24
	if (sens_value>120||sens_value<(-40)) sens_err_G = true;		
    2c54:	20 e0       	ldi	r18, 0x00	; 0
    2c56:	30 e0       	ldi	r19, 0x00	; 0
    2c58:	40 ef       	ldi	r20, 0xF0	; 240
    2c5a:	52 e4       	ldi	r21, 0x42	; 66
    2c5c:	0e 94 59 19 	call	0x32b2	; 0x32b2 <__gesf2>
    2c60:	18 16       	cp	r1, r24
    2c62:	54 f0       	brlt	.+20     	; 0x2c78 <_Z9sensorErrf+0x30>
    2c64:	20 e0       	ldi	r18, 0x00	; 0
    2c66:	30 e0       	ldi	r19, 0x00	; 0
    2c68:	40 e2       	ldi	r20, 0x20	; 32
    2c6a:	52 ec       	ldi	r21, 0xC2	; 194
    2c6c:	c7 01       	movw	r24, r14
    2c6e:	b6 01       	movw	r22, r12
    2c70:	0e 94 01 18 	call	0x3002	; 0x3002 <__cmpsf2>
    2c74:	88 23       	and	r24, r24
    2c76:	24 f4       	brge	.+8      	; 0x2c80 <_Z9sensorErrf+0x38>
    2c78:	81 e0       	ldi	r24, 0x01	; 1
    2c7a:	80 93 c4 03 	sts	0x03C4, r24
    2c7e:	02 c0       	rjmp	.+4      	; 0x2c84 <_Z9sensorErrf+0x3c>
	else sens_err_G = false;		
    2c80:	10 92 c4 03 	sts	0x03C4, r1
}
    2c84:	ff 90       	pop	r15
    2c86:	ef 90       	pop	r14
    2c88:	df 90       	pop	r13
    2c8a:	cf 90       	pop	r12
    2c8c:	08 95       	ret

00002c8e <_Z21Atmega16Timer16bitIniv>:


void Atmega16Timer16bitIni (void)
{
	
	TCCR1B |= (0<<CS12)|(1<<CS11)|(1<<CS10);  // // prescale of 64  4000000 / 64 = 62500 -> частота годинника
    2c8e:	8e b5       	in	r24, 0x2e	; 46
    2c90:	83 60       	ori	r24, 0x03	; 3
    2c92:	8e bd       	out	0x2e, r24	; 46
	
	unsigned int r = 250;  //  we need every interrupt. 62500/1000 62.5per 1ms  62.5*4=250    4ms   
	unsigned int rl =  r & 0x00ff;
	unsigned int rh =  (r & 0xff00)>>8;
	
    TCCR1B |=(1<<WGM12); //regime cct
    2c94:	8e b5       	in	r24, 0x2e	; 46
    2c96:	88 60       	ori	r24, 0x08	; 8
    2c98:	8e bd       	out	0x2e, r24	; 46

	OCR1AH = rh;
    2c9a:	1b bc       	out	0x2b, r1	; 43
	OCR1AL = rl;
    2c9c:	8a ef       	ldi	r24, 0xFA	; 250
    2c9e:	8a bd       	out	0x2a, r24	; 42
	TIMSK |= (1<<OCIE1A );  // Когда этот бит установлен в 1 и разрешены прерывания,
    2ca0:	89 b7       	in	r24, 0x39	; 57
    2ca2:	80 61       	ori	r24, 0x10	; 16
    2ca4:	89 bf       	out	0x39, r24	; 57
	// процессор реагирует вызовом прерывания по вектору $00C (OC1Aaddr)
	// на событие совпадения счёта с константой в регистре OCR1A.
	sei();   // ініціалізація переривань
    2ca6:	78 94       	sei
    2ca8:	08 95       	ret

00002caa <_Z9ClockTickv>:
// вхідні дані час з якого робити відлік
 
void ClockTick (void)
{
		
	our_time[SECONDS]++; 
    2caa:	80 91 85 02 	lds	r24, 0x0285
    2cae:	90 91 86 02 	lds	r25, 0x0286
    2cb2:	a0 91 87 02 	lds	r26, 0x0287
    2cb6:	b0 91 88 02 	lds	r27, 0x0288
    2cba:	01 96       	adiw	r24, 0x01	; 1
    2cbc:	a1 1d       	adc	r26, r1
    2cbe:	b1 1d       	adc	r27, r1
			
	if  (our_time[SECONDS]>=60)
    2cc0:	8c 33       	cpi	r24, 0x3C	; 60
    2cc2:	91 05       	cpc	r25, r1
    2cc4:	a1 05       	cpc	r26, r1
    2cc6:	b1 05       	cpc	r27, r1
    2cc8:	4c f4       	brge	.+18     	; 0x2cdc <_Z9ClockTickv+0x32>
// вхідні дані час з якого робити відлік
 
void ClockTick (void)
{
		
	our_time[SECONDS]++; 
    2cca:	80 93 85 02 	sts	0x0285, r24
    2cce:	90 93 86 02 	sts	0x0286, r25
    2cd2:	a0 93 87 02 	sts	0x0287, r26
    2cd6:	b0 93 88 02 	sts	0x0288, r27
    2cda:	08 95       	ret
			
	if  (our_time[SECONDS]>=60)
		{
			our_time[SECONDS] = 0;
    2cdc:	e5 e8       	ldi	r30, 0x85	; 133
    2cde:	f2 e0       	ldi	r31, 0x02	; 2
    2ce0:	10 82       	st	Z, r1
    2ce2:	11 82       	std	Z+1, r1	; 0x01
    2ce4:	12 82       	std	Z+2, r1	; 0x02
    2ce6:	13 82       	std	Z+3, r1	; 0x03
			our_time[MINUTES]++;
    2ce8:	84 81       	ldd	r24, Z+4	; 0x04
    2cea:	95 81       	ldd	r25, Z+5	; 0x05
    2cec:	a6 81       	ldd	r26, Z+6	; 0x06
    2cee:	b7 81       	ldd	r27, Z+7	; 0x07
    2cf0:	01 96       	adiw	r24, 0x01	; 1
    2cf2:	a1 1d       	adc	r26, r1
    2cf4:	b1 1d       	adc	r27, r1
		}
	else  return; 
	
	if (our_time[MINUTES] >=60)  // чи натікало 60хв
    2cf6:	8c 33       	cpi	r24, 0x3C	; 60
    2cf8:	91 05       	cpc	r25, r1
    2cfa:	a1 05       	cpc	r26, r1
    2cfc:	b1 05       	cpc	r27, r1
    2cfe:	4c f4       	brge	.+18     	; 0x2d12 <_Z9ClockTickv+0x68>
	our_time[SECONDS]++; 
			
	if  (our_time[SECONDS]>=60)
		{
			our_time[SECONDS] = 0;
			our_time[MINUTES]++;
    2d00:	80 93 89 02 	sts	0x0289, r24
    2d04:	90 93 8a 02 	sts	0x028A, r25
    2d08:	a0 93 8b 02 	sts	0x028B, r26
    2d0c:	b0 93 8c 02 	sts	0x028C, r27
    2d10:	08 95       	ret
		}
	else  return; 
	
	if (our_time[MINUTES] >=60)  // чи натікало 60хв
		{
			our_time[MINUTES] = 0;
    2d12:	e5 e8       	ldi	r30, 0x85	; 133
    2d14:	f2 e0       	ldi	r31, 0x02	; 2
    2d16:	14 82       	std	Z+4, r1	; 0x04
    2d18:	15 82       	std	Z+5, r1	; 0x05
    2d1a:	16 82       	std	Z+6, r1	; 0x06
    2d1c:	17 82       	std	Z+7, r1	; 0x07
			our_time[HOURE]++;
    2d1e:	80 85       	ldd	r24, Z+8	; 0x08
    2d20:	91 85       	ldd	r25, Z+9	; 0x09
    2d22:	a2 85       	ldd	r26, Z+10	; 0x0a
    2d24:	b3 85       	ldd	r27, Z+11	; 0x0b
    2d26:	01 96       	adiw	r24, 0x01	; 1
    2d28:	a1 1d       	adc	r26, r1
    2d2a:	b1 1d       	adc	r27, r1
		}
	else return; 
		
// обробка днів
	if (our_time[HOURE] >= 24)   // чи натікало 24 години
    2d2c:	88 31       	cpi	r24, 0x18	; 24
    2d2e:	91 05       	cpc	r25, r1
    2d30:	a1 05       	cpc	r26, r1
    2d32:	b1 05       	cpc	r27, r1
    2d34:	4c f4       	brge	.+18     	; 0x2d48 <_Z9ClockTickv+0x9e>
	else  return; 
	
	if (our_time[MINUTES] >=60)  // чи натікало 60хв
		{
			our_time[MINUTES] = 0;
			our_time[HOURE]++;
    2d36:	80 93 8d 02 	sts	0x028D, r24
    2d3a:	90 93 8e 02 	sts	0x028E, r25
    2d3e:	a0 93 8f 02 	sts	0x028F, r26
    2d42:	b0 93 90 02 	sts	0x0290, r27
    2d46:	08 95       	ret
	else return; 
		
// обробка днів
	if (our_time[HOURE] >= 24)   // чи натікало 24 години
		{
			our_time[HOURE] = 0;   // обнулити години
    2d48:	e5 e8       	ldi	r30, 0x85	; 133
    2d4a:	f2 e0       	ldi	r31, 0x02	; 2
    2d4c:	10 86       	std	Z+8, r1	; 0x08
    2d4e:	11 86       	std	Z+9, r1	; 0x09
    2d50:	12 86       	std	Z+10, r1	; 0x0a
    2d52:	13 86       	std	Z+11, r1	; 0x0b
			our_time[WEEKDAY]++;   // day of the week ++
    2d54:	44 85       	ldd	r20, Z+12	; 0x0c
    2d56:	55 85       	ldd	r21, Z+13	; 0x0d
    2d58:	66 85       	ldd	r22, Z+14	; 0x0e
    2d5a:	77 85       	ldd	r23, Z+15	; 0x0f
    2d5c:	4f 5f       	subi	r20, 0xFF	; 255
    2d5e:	5f 4f       	sbci	r21, 0xFF	; 255
    2d60:	6f 4f       	sbci	r22, 0xFF	; 255
    2d62:	7f 4f       	sbci	r23, 0xFF	; 255
    2d64:	44 87       	std	Z+12, r20	; 0x0c
    2d66:	55 87       	std	Z+13, r21	; 0x0d
    2d68:	66 87       	std	Z+14, r22	; 0x0e
    2d6a:	77 87       	std	Z+15, r23	; 0x0f
			our_time[DAY]++;        // на один день збільшити 
    2d6c:	80 89       	ldd	r24, Z+16	; 0x10
    2d6e:	91 89       	ldd	r25, Z+17	; 0x11
    2d70:	a2 89       	ldd	r26, Z+18	; 0x12
    2d72:	b3 89       	ldd	r27, Z+19	; 0x13
    2d74:	01 96       	adiw	r24, 0x01	; 1
    2d76:	a1 1d       	adc	r26, r1
    2d78:	b1 1d       	adc	r27, r1
    2d7a:	80 8b       	std	Z+16, r24	; 0x10
    2d7c:	91 8b       	std	Z+17, r25	; 0x11
    2d7e:	a2 8b       	std	Z+18, r26	; 0x12
    2d80:	b3 8b       	std	Z+19, r27	; 0x13
			
		}
	else  return; 
	
	if (our_time[WEEKDAY]>7) our_time[WEEKDAY]=1;
    2d82:	48 30       	cpi	r20, 0x08	; 8
    2d84:	51 05       	cpc	r21, r1
    2d86:	61 05       	cpc	r22, r1
    2d88:	71 05       	cpc	r23, r1
    2d8a:	64 f0       	brlt	.+24     	; 0x2da4 <_Z9ClockTickv+0xfa>
    2d8c:	41 e0       	ldi	r20, 0x01	; 1
    2d8e:	50 e0       	ldi	r21, 0x00	; 0
    2d90:	60 e0       	ldi	r22, 0x00	; 0
    2d92:	70 e0       	ldi	r23, 0x00	; 0
    2d94:	40 93 91 02 	sts	0x0291, r20
    2d98:	50 93 92 02 	sts	0x0292, r21
    2d9c:	60 93 93 02 	sts	0x0293, r22
    2da0:	70 93 94 02 	sts	0x0294, r23
						
 // обробка місяця Лютого						
	if (  (our_time[DAY] == 29)  && (our_time[MONTH] == 2) && (our_time[YEAR]%4 != 0) )   // якщо минуло 28 днів і це місяць лютий а рік не високосний
    2da4:	8d 31       	cpi	r24, 0x1D	; 29
    2da6:	91 05       	cpc	r25, r1
    2da8:	a1 05       	cpc	r26, r1
    2daa:	b1 05       	cpc	r27, r1
    2dac:	89 f5       	brne	.+98     	; 0x2e10 <_Z9ClockTickv+0x166>
    2dae:	80 91 99 02 	lds	r24, 0x0299
    2db2:	90 91 9a 02 	lds	r25, 0x029A
    2db6:	a0 91 9b 02 	lds	r26, 0x029B
    2dba:	b0 91 9c 02 	lds	r27, 0x029C
    2dbe:	02 97       	sbiw	r24, 0x02	; 2
    2dc0:	a1 05       	cpc	r26, r1
    2dc2:	b1 05       	cpc	r27, r1
    2dc4:	09 f0       	breq	.+2      	; 0x2dc8 <_Z9ClockTickv+0x11e>
    2dc6:	8e c0       	rjmp	.+284    	; 0x2ee4 <_Z9ClockTickv+0x23a>
    2dc8:	80 91 9d 02 	lds	r24, 0x029D
    2dcc:	90 91 9e 02 	lds	r25, 0x029E
    2dd0:	a0 91 9f 02 	lds	r26, 0x029F
    2dd4:	b0 91 a0 02 	lds	r27, 0x02A0
    2dd8:	83 70       	andi	r24, 0x03	; 3
    2dda:	99 27       	eor	r25, r25
    2ddc:	aa 27       	eor	r26, r26
    2dde:	bb 27       	eor	r27, r27
    2de0:	89 2b       	or	r24, r25
    2de2:	8a 2b       	or	r24, r26
    2de4:	8b 2b       	or	r24, r27
    2de6:	09 f4       	brne	.+2      	; 0x2dea <_Z9ClockTickv+0x140>
    2de8:	9e c0       	rjmp	.+316    	; 0x2f26 <_Z9ClockTickv+0x27c>
		{
			our_time[DAY] = 1;
    2dea:	e5 e8       	ldi	r30, 0x85	; 133
    2dec:	f2 e0       	ldi	r31, 0x02	; 2
    2dee:	81 e0       	ldi	r24, 0x01	; 1
    2df0:	90 e0       	ldi	r25, 0x00	; 0
    2df2:	a0 e0       	ldi	r26, 0x00	; 0
    2df4:	b0 e0       	ldi	r27, 0x00	; 0
    2df6:	80 8b       	std	Z+16, r24	; 0x10
    2df8:	91 8b       	std	Z+17, r25	; 0x11
    2dfa:	a2 8b       	std	Z+18, r26	; 0x12
    2dfc:	b3 8b       	std	Z+19, r27	; 0x13
			our_time[MONTH] = 3;    // настав місяць березень
    2dfe:	83 e0       	ldi	r24, 0x03	; 3
    2e00:	90 e0       	ldi	r25, 0x00	; 0
    2e02:	a0 e0       	ldi	r26, 0x00	; 0
    2e04:	b0 e0       	ldi	r27, 0x00	; 0
    2e06:	84 8b       	std	Z+20, r24	; 0x14
    2e08:	95 8b       	std	Z+21, r25	; 0x15
    2e0a:	a6 8b       	std	Z+22, r26	; 0x16
    2e0c:	b7 8b       	std	Z+23, r27	; 0x17
			return;     
    2e0e:	08 95       	ret
		}
						
													
	if ( (our_time[DAY] == 30) && (our_time[MONTH] == 2) )    //у високосний рік, якщо 29 днів минуло
    2e10:	8e 31       	cpi	r24, 0x1E	; 30
    2e12:	91 05       	cpc	r25, r1
    2e14:	a1 05       	cpc	r26, r1
    2e16:	b1 05       	cpc	r27, r1
    2e18:	01 f5       	brne	.+64     	; 0x2e5a <_Z9ClockTickv+0x1b0>
    2e1a:	80 91 99 02 	lds	r24, 0x0299
    2e1e:	90 91 9a 02 	lds	r25, 0x029A
    2e22:	a0 91 9b 02 	lds	r26, 0x029B
    2e26:	b0 91 9c 02 	lds	r27, 0x029C
    2e2a:	02 97       	sbiw	r24, 0x02	; 2
    2e2c:	a1 05       	cpc	r26, r1
    2e2e:	b1 05       	cpc	r27, r1
    2e30:	09 f0       	breq	.+2      	; 0x2e34 <_Z9ClockTickv+0x18a>
    2e32:	58 c0       	rjmp	.+176    	; 0x2ee4 <_Z9ClockTickv+0x23a>
		{
			our_time[DAY] = 1;
    2e34:	e5 e8       	ldi	r30, 0x85	; 133
    2e36:	f2 e0       	ldi	r31, 0x02	; 2
    2e38:	81 e0       	ldi	r24, 0x01	; 1
    2e3a:	90 e0       	ldi	r25, 0x00	; 0
    2e3c:	a0 e0       	ldi	r26, 0x00	; 0
    2e3e:	b0 e0       	ldi	r27, 0x00	; 0
    2e40:	80 8b       	std	Z+16, r24	; 0x10
    2e42:	91 8b       	std	Z+17, r25	; 0x11
    2e44:	a2 8b       	std	Z+18, r26	; 0x12
    2e46:	b3 8b       	std	Z+19, r27	; 0x13
			our_time[MONTH] = 3;    // настав місяць березень
    2e48:	83 e0       	ldi	r24, 0x03	; 3
    2e4a:	90 e0       	ldi	r25, 0x00	; 0
    2e4c:	a0 e0       	ldi	r26, 0x00	; 0
    2e4e:	b0 e0       	ldi	r27, 0x00	; 0
    2e50:	84 8b       	std	Z+20, r24	; 0x14
    2e52:	95 8b       	std	Z+21, r25	; 0x15
    2e54:	a6 8b       	std	Z+22, r26	; 0x16
    2e56:	b7 8b       	std	Z+23, r27	; 0x17
			return;
    2e58:	08 95       	ret
		}
	// обробка місяців в яких 30 днів
	if ( (our_time[DAY] == 31)  &&  (  (our_time[MONTH]==4) || 
    2e5a:	8f 31       	cpi	r24, 0x1F	; 31
    2e5c:	91 05       	cpc	r25, r1
    2e5e:	a1 05       	cpc	r26, r1
    2e60:	b1 05       	cpc	r27, r1
    2e62:	39 f5       	brne	.+78     	; 0x2eb2 <_Z9ClockTickv+0x208>
    2e64:	80 91 99 02 	lds	r24, 0x0299
    2e68:	90 91 9a 02 	lds	r25, 0x029A
    2e6c:	a0 91 9b 02 	lds	r26, 0x029B
    2e70:	b0 91 9c 02 	lds	r27, 0x029C
    2e74:	ac 01       	movw	r20, r24
    2e76:	bd 01       	movw	r22, r26
    2e78:	4d 7f       	andi	r20, 0xFD	; 253
    2e7a:	44 30       	cpi	r20, 0x04	; 4
    2e7c:	51 05       	cpc	r21, r1
    2e7e:	61 05       	cpc	r22, r1
    2e80:	71 05       	cpc	r23, r1
    2e82:	29 f0       	breq	.+10     	; 0x2e8e <_Z9ClockTickv+0x1e4>
																 (our_time[MONTH]==6) ||
    2e84:	49 30       	cpi	r20, 0x09	; 9
    2e86:	51 05       	cpc	r21, r1
    2e88:	61 05       	cpc	r22, r1
    2e8a:	71 05       	cpc	r23, r1
    2e8c:	59 f5       	brne	.+86     	; 0x2ee4 <_Z9ClockTickv+0x23a>
																 (our_time[MONTH]==9) ||		
																 (our_time[MONTH]==11)																		 
									)
	   )					
		{
			our_time[DAY] = 1;
    2e8e:	e5 e8       	ldi	r30, 0x85	; 133
    2e90:	f2 e0       	ldi	r31, 0x02	; 2
    2e92:	41 e0       	ldi	r20, 0x01	; 1
    2e94:	50 e0       	ldi	r21, 0x00	; 0
    2e96:	60 e0       	ldi	r22, 0x00	; 0
    2e98:	70 e0       	ldi	r23, 0x00	; 0
    2e9a:	40 8b       	std	Z+16, r20	; 0x10
    2e9c:	51 8b       	std	Z+17, r21	; 0x11
    2e9e:	62 8b       	std	Z+18, r22	; 0x12
    2ea0:	73 8b       	std	Z+19, r23	; 0x13
			our_time[MONTH]++;  // наступний місяць  
    2ea2:	01 96       	adiw	r24, 0x01	; 1
    2ea4:	a1 1d       	adc	r26, r1
    2ea6:	b1 1d       	adc	r27, r1
    2ea8:	84 8b       	std	Z+20, r24	; 0x14
    2eaa:	95 8b       	std	Z+21, r25	; 0x15
    2eac:	a6 8b       	std	Z+22, r26	; 0x16
    2eae:	b7 8b       	std	Z+23, r27	; 0x17
			return;  // зміни року після цього блоку не відбуватиметься
    2eb0:	08 95       	ret
		}
	  //  обробка місяців, у яких 31 день
	if (our_time[DAY] >=32) 
    2eb2:	80 97       	sbiw	r24, 0x20	; 32
    2eb4:	a1 05       	cpc	r26, r1
    2eb6:	b1 05       	cpc	r27, r1
    2eb8:	ac f0       	brlt	.+42     	; 0x2ee4 <_Z9ClockTickv+0x23a>
		{
			our_time[DAY] = 1;
    2eba:	e5 e8       	ldi	r30, 0x85	; 133
    2ebc:	f2 e0       	ldi	r31, 0x02	; 2
    2ebe:	81 e0       	ldi	r24, 0x01	; 1
    2ec0:	90 e0       	ldi	r25, 0x00	; 0
    2ec2:	a0 e0       	ldi	r26, 0x00	; 0
    2ec4:	b0 e0       	ldi	r27, 0x00	; 0
    2ec6:	80 8b       	std	Z+16, r24	; 0x10
    2ec8:	91 8b       	std	Z+17, r25	; 0x11
    2eca:	a2 8b       	std	Z+18, r26	; 0x12
    2ecc:	b3 8b       	std	Z+19, r27	; 0x13
			our_time[MONTH]++; 
    2ece:	84 89       	ldd	r24, Z+20	; 0x14
    2ed0:	95 89       	ldd	r25, Z+21	; 0x15
    2ed2:	a6 89       	ldd	r26, Z+22	; 0x16
    2ed4:	b7 89       	ldd	r27, Z+23	; 0x17
    2ed6:	01 96       	adiw	r24, 0x01	; 1
    2ed8:	a1 1d       	adc	r26, r1
    2eda:	b1 1d       	adc	r27, r1
    2edc:	84 8b       	std	Z+20, r24	; 0x14
    2ede:	95 8b       	std	Z+21, r25	; 0x15
    2ee0:	a6 8b       	std	Z+22, r26	; 0x16
    2ee2:	b7 8b       	std	Z+23, r27	; 0x17
		}
	// обробка років
	if  (our_time[MONTH] >=13 )
    2ee4:	80 91 99 02 	lds	r24, 0x0299
    2ee8:	90 91 9a 02 	lds	r25, 0x029A
    2eec:	a0 91 9b 02 	lds	r26, 0x029B
    2ef0:	b0 91 9c 02 	lds	r27, 0x029C
    2ef4:	0d 97       	sbiw	r24, 0x0d	; 13
    2ef6:	a1 05       	cpc	r26, r1
    2ef8:	b1 05       	cpc	r27, r1
    2efa:	ac f0       	brlt	.+42     	; 0x2f26 <_Z9ClockTickv+0x27c>
		{
			our_time[MONTH] = 1;
    2efc:	e5 e8       	ldi	r30, 0x85	; 133
    2efe:	f2 e0       	ldi	r31, 0x02	; 2
    2f00:	81 e0       	ldi	r24, 0x01	; 1
    2f02:	90 e0       	ldi	r25, 0x00	; 0
    2f04:	a0 e0       	ldi	r26, 0x00	; 0
    2f06:	b0 e0       	ldi	r27, 0x00	; 0
    2f08:	84 8b       	std	Z+20, r24	; 0x14
    2f0a:	95 8b       	std	Z+21, r25	; 0x15
    2f0c:	a6 8b       	std	Z+22, r26	; 0x16
    2f0e:	b7 8b       	std	Z+23, r27	; 0x17
			our_time[YEAR] ++;
    2f10:	80 8d       	ldd	r24, Z+24	; 0x18
    2f12:	91 8d       	ldd	r25, Z+25	; 0x19
    2f14:	a2 8d       	ldd	r26, Z+26	; 0x1a
    2f16:	b3 8d       	ldd	r27, Z+27	; 0x1b
    2f18:	01 96       	adiw	r24, 0x01	; 1
    2f1a:	a1 1d       	adc	r26, r1
    2f1c:	b1 1d       	adc	r27, r1
    2f1e:	80 8f       	std	Z+24, r24	; 0x18
    2f20:	91 8f       	std	Z+25, r25	; 0x19
    2f22:	a2 8f       	std	Z+26, r26	; 0x1a
    2f24:	b3 8f       	std	Z+27, r27	; 0x1b
    2f26:	08 95       	ret

00002f28 <__subsf3>:
    2f28:	50 58       	subi	r21, 0x80	; 128

00002f2a <__addsf3>:
    2f2a:	bb 27       	eor	r27, r27
    2f2c:	aa 27       	eor	r26, r26
    2f2e:	0e 94 ac 17 	call	0x2f58	; 0x2f58 <__addsf3x>
    2f32:	0c 94 1f 19 	jmp	0x323e	; 0x323e <__fp_round>
    2f36:	0e 94 11 19 	call	0x3222	; 0x3222 <__fp_pscA>
    2f3a:	38 f0       	brcs	.+14     	; 0x2f4a <__addsf3+0x20>
    2f3c:	0e 94 18 19 	call	0x3230	; 0x3230 <__fp_pscB>
    2f40:	20 f0       	brcs	.+8      	; 0x2f4a <__addsf3+0x20>
    2f42:	39 f4       	brne	.+14     	; 0x2f52 <__addsf3+0x28>
    2f44:	9f 3f       	cpi	r25, 0xFF	; 255
    2f46:	19 f4       	brne	.+6      	; 0x2f4e <__addsf3+0x24>
    2f48:	26 f4       	brtc	.+8      	; 0x2f52 <__addsf3+0x28>
    2f4a:	0c 94 0e 19 	jmp	0x321c	; 0x321c <__fp_nan>
    2f4e:	0e f4       	brtc	.+2      	; 0x2f52 <__addsf3+0x28>
    2f50:	e0 95       	com	r30
    2f52:	e7 fb       	bst	r30, 7
    2f54:	0c 94 08 19 	jmp	0x3210	; 0x3210 <__fp_inf>

00002f58 <__addsf3x>:
    2f58:	e9 2f       	mov	r30, r25
    2f5a:	0e 94 30 19 	call	0x3260	; 0x3260 <__fp_split3>
    2f5e:	58 f3       	brcs	.-42     	; 0x2f36 <__addsf3+0xc>
    2f60:	ba 17       	cp	r27, r26
    2f62:	62 07       	cpc	r22, r18
    2f64:	73 07       	cpc	r23, r19
    2f66:	84 07       	cpc	r24, r20
    2f68:	95 07       	cpc	r25, r21
    2f6a:	20 f0       	brcs	.+8      	; 0x2f74 <__addsf3x+0x1c>
    2f6c:	79 f4       	brne	.+30     	; 0x2f8c <__addsf3x+0x34>
    2f6e:	a6 f5       	brtc	.+104    	; 0x2fd8 <__addsf3x+0x80>
    2f70:	0c 94 52 19 	jmp	0x32a4	; 0x32a4 <__fp_zero>
    2f74:	0e f4       	brtc	.+2      	; 0x2f78 <__addsf3x+0x20>
    2f76:	e0 95       	com	r30
    2f78:	0b 2e       	mov	r0, r27
    2f7a:	ba 2f       	mov	r27, r26
    2f7c:	a0 2d       	mov	r26, r0
    2f7e:	0b 01       	movw	r0, r22
    2f80:	b9 01       	movw	r22, r18
    2f82:	90 01       	movw	r18, r0
    2f84:	0c 01       	movw	r0, r24
    2f86:	ca 01       	movw	r24, r20
    2f88:	a0 01       	movw	r20, r0
    2f8a:	11 24       	eor	r1, r1
    2f8c:	ff 27       	eor	r31, r31
    2f8e:	59 1b       	sub	r21, r25
    2f90:	99 f0       	breq	.+38     	; 0x2fb8 <__addsf3x+0x60>
    2f92:	59 3f       	cpi	r21, 0xF9	; 249
    2f94:	50 f4       	brcc	.+20     	; 0x2faa <__addsf3x+0x52>
    2f96:	50 3e       	cpi	r21, 0xE0	; 224
    2f98:	68 f1       	brcs	.+90     	; 0x2ff4 <__addsf3x+0x9c>
    2f9a:	1a 16       	cp	r1, r26
    2f9c:	f0 40       	sbci	r31, 0x00	; 0
    2f9e:	a2 2f       	mov	r26, r18
    2fa0:	23 2f       	mov	r18, r19
    2fa2:	34 2f       	mov	r19, r20
    2fa4:	44 27       	eor	r20, r20
    2fa6:	58 5f       	subi	r21, 0xF8	; 248
    2fa8:	f3 cf       	rjmp	.-26     	; 0x2f90 <__addsf3x+0x38>
    2faa:	46 95       	lsr	r20
    2fac:	37 95       	ror	r19
    2fae:	27 95       	ror	r18
    2fb0:	a7 95       	ror	r26
    2fb2:	f0 40       	sbci	r31, 0x00	; 0
    2fb4:	53 95       	inc	r21
    2fb6:	c9 f7       	brne	.-14     	; 0x2faa <__addsf3x+0x52>
    2fb8:	7e f4       	brtc	.+30     	; 0x2fd8 <__addsf3x+0x80>
    2fba:	1f 16       	cp	r1, r31
    2fbc:	ba 0b       	sbc	r27, r26
    2fbe:	62 0b       	sbc	r22, r18
    2fc0:	73 0b       	sbc	r23, r19
    2fc2:	84 0b       	sbc	r24, r20
    2fc4:	ba f0       	brmi	.+46     	; 0x2ff4 <__addsf3x+0x9c>
    2fc6:	91 50       	subi	r25, 0x01	; 1
    2fc8:	a1 f0       	breq	.+40     	; 0x2ff2 <__addsf3x+0x9a>
    2fca:	ff 0f       	add	r31, r31
    2fcc:	bb 1f       	adc	r27, r27
    2fce:	66 1f       	adc	r22, r22
    2fd0:	77 1f       	adc	r23, r23
    2fd2:	88 1f       	adc	r24, r24
    2fd4:	c2 f7       	brpl	.-16     	; 0x2fc6 <__addsf3x+0x6e>
    2fd6:	0e c0       	rjmp	.+28     	; 0x2ff4 <__addsf3x+0x9c>
    2fd8:	ba 0f       	add	r27, r26
    2fda:	62 1f       	adc	r22, r18
    2fdc:	73 1f       	adc	r23, r19
    2fde:	84 1f       	adc	r24, r20
    2fe0:	48 f4       	brcc	.+18     	; 0x2ff4 <__addsf3x+0x9c>
    2fe2:	87 95       	ror	r24
    2fe4:	77 95       	ror	r23
    2fe6:	67 95       	ror	r22
    2fe8:	b7 95       	ror	r27
    2fea:	f7 95       	ror	r31
    2fec:	9e 3f       	cpi	r25, 0xFE	; 254
    2fee:	08 f0       	brcs	.+2      	; 0x2ff2 <__addsf3x+0x9a>
    2ff0:	b0 cf       	rjmp	.-160    	; 0x2f52 <__addsf3+0x28>
    2ff2:	93 95       	inc	r25
    2ff4:	88 0f       	add	r24, r24
    2ff6:	08 f0       	brcs	.+2      	; 0x2ffa <__addsf3x+0xa2>
    2ff8:	99 27       	eor	r25, r25
    2ffa:	ee 0f       	add	r30, r30
    2ffc:	97 95       	ror	r25
    2ffe:	87 95       	ror	r24
    3000:	08 95       	ret

00003002 <__cmpsf2>:
    3002:	0e 94 e4 18 	call	0x31c8	; 0x31c8 <__fp_cmp>
    3006:	08 f4       	brcc	.+2      	; 0x300a <__cmpsf2+0x8>
    3008:	81 e0       	ldi	r24, 0x01	; 1
    300a:	08 95       	ret

0000300c <__divsf3>:
    300c:	0e 94 1a 18 	call	0x3034	; 0x3034 <__divsf3x>
    3010:	0c 94 1f 19 	jmp	0x323e	; 0x323e <__fp_round>
    3014:	0e 94 18 19 	call	0x3230	; 0x3230 <__fp_pscB>
    3018:	58 f0       	brcs	.+22     	; 0x3030 <__divsf3+0x24>
    301a:	0e 94 11 19 	call	0x3222	; 0x3222 <__fp_pscA>
    301e:	40 f0       	brcs	.+16     	; 0x3030 <__divsf3+0x24>
    3020:	29 f4       	brne	.+10     	; 0x302c <__divsf3+0x20>
    3022:	5f 3f       	cpi	r21, 0xFF	; 255
    3024:	29 f0       	breq	.+10     	; 0x3030 <__divsf3+0x24>
    3026:	0c 94 08 19 	jmp	0x3210	; 0x3210 <__fp_inf>
    302a:	51 11       	cpse	r21, r1
    302c:	0c 94 53 19 	jmp	0x32a6	; 0x32a6 <__fp_szero>
    3030:	0c 94 0e 19 	jmp	0x321c	; 0x321c <__fp_nan>

00003034 <__divsf3x>:
    3034:	0e 94 30 19 	call	0x3260	; 0x3260 <__fp_split3>
    3038:	68 f3       	brcs	.-38     	; 0x3014 <__divsf3+0x8>

0000303a <__divsf3_pse>:
    303a:	99 23       	and	r25, r25
    303c:	b1 f3       	breq	.-20     	; 0x302a <__divsf3+0x1e>
    303e:	55 23       	and	r21, r21
    3040:	91 f3       	breq	.-28     	; 0x3026 <__divsf3+0x1a>
    3042:	95 1b       	sub	r25, r21
    3044:	55 0b       	sbc	r21, r21
    3046:	bb 27       	eor	r27, r27
    3048:	aa 27       	eor	r26, r26
    304a:	62 17       	cp	r22, r18
    304c:	73 07       	cpc	r23, r19
    304e:	84 07       	cpc	r24, r20
    3050:	38 f0       	brcs	.+14     	; 0x3060 <__divsf3_pse+0x26>
    3052:	9f 5f       	subi	r25, 0xFF	; 255
    3054:	5f 4f       	sbci	r21, 0xFF	; 255
    3056:	22 0f       	add	r18, r18
    3058:	33 1f       	adc	r19, r19
    305a:	44 1f       	adc	r20, r20
    305c:	aa 1f       	adc	r26, r26
    305e:	a9 f3       	breq	.-22     	; 0x304a <__divsf3_pse+0x10>
    3060:	35 d0       	rcall	.+106    	; 0x30cc <__divsf3_pse+0x92>
    3062:	0e 2e       	mov	r0, r30
    3064:	3a f0       	brmi	.+14     	; 0x3074 <__divsf3_pse+0x3a>
    3066:	e0 e8       	ldi	r30, 0x80	; 128
    3068:	32 d0       	rcall	.+100    	; 0x30ce <__divsf3_pse+0x94>
    306a:	91 50       	subi	r25, 0x01	; 1
    306c:	50 40       	sbci	r21, 0x00	; 0
    306e:	e6 95       	lsr	r30
    3070:	00 1c       	adc	r0, r0
    3072:	ca f7       	brpl	.-14     	; 0x3066 <__divsf3_pse+0x2c>
    3074:	2b d0       	rcall	.+86     	; 0x30cc <__divsf3_pse+0x92>
    3076:	fe 2f       	mov	r31, r30
    3078:	29 d0       	rcall	.+82     	; 0x30cc <__divsf3_pse+0x92>
    307a:	66 0f       	add	r22, r22
    307c:	77 1f       	adc	r23, r23
    307e:	88 1f       	adc	r24, r24
    3080:	bb 1f       	adc	r27, r27
    3082:	26 17       	cp	r18, r22
    3084:	37 07       	cpc	r19, r23
    3086:	48 07       	cpc	r20, r24
    3088:	ab 07       	cpc	r26, r27
    308a:	b0 e8       	ldi	r27, 0x80	; 128
    308c:	09 f0       	breq	.+2      	; 0x3090 <__divsf3_pse+0x56>
    308e:	bb 0b       	sbc	r27, r27
    3090:	80 2d       	mov	r24, r0
    3092:	bf 01       	movw	r22, r30
    3094:	ff 27       	eor	r31, r31
    3096:	93 58       	subi	r25, 0x83	; 131
    3098:	5f 4f       	sbci	r21, 0xFF	; 255
    309a:	3a f0       	brmi	.+14     	; 0x30aa <__divsf3_pse+0x70>
    309c:	9e 3f       	cpi	r25, 0xFE	; 254
    309e:	51 05       	cpc	r21, r1
    30a0:	78 f0       	brcs	.+30     	; 0x30c0 <__divsf3_pse+0x86>
    30a2:	0c 94 08 19 	jmp	0x3210	; 0x3210 <__fp_inf>
    30a6:	0c 94 53 19 	jmp	0x32a6	; 0x32a6 <__fp_szero>
    30aa:	5f 3f       	cpi	r21, 0xFF	; 255
    30ac:	e4 f3       	brlt	.-8      	; 0x30a6 <__divsf3_pse+0x6c>
    30ae:	98 3e       	cpi	r25, 0xE8	; 232
    30b0:	d4 f3       	brlt	.-12     	; 0x30a6 <__divsf3_pse+0x6c>
    30b2:	86 95       	lsr	r24
    30b4:	77 95       	ror	r23
    30b6:	67 95       	ror	r22
    30b8:	b7 95       	ror	r27
    30ba:	f7 95       	ror	r31
    30bc:	9f 5f       	subi	r25, 0xFF	; 255
    30be:	c9 f7       	brne	.-14     	; 0x30b2 <__divsf3_pse+0x78>
    30c0:	88 0f       	add	r24, r24
    30c2:	91 1d       	adc	r25, r1
    30c4:	96 95       	lsr	r25
    30c6:	87 95       	ror	r24
    30c8:	97 f9       	bld	r25, 7
    30ca:	08 95       	ret
    30cc:	e1 e0       	ldi	r30, 0x01	; 1
    30ce:	66 0f       	add	r22, r22
    30d0:	77 1f       	adc	r23, r23
    30d2:	88 1f       	adc	r24, r24
    30d4:	bb 1f       	adc	r27, r27
    30d6:	62 17       	cp	r22, r18
    30d8:	73 07       	cpc	r23, r19
    30da:	84 07       	cpc	r24, r20
    30dc:	ba 07       	cpc	r27, r26
    30de:	20 f0       	brcs	.+8      	; 0x30e8 <__divsf3_pse+0xae>
    30e0:	62 1b       	sub	r22, r18
    30e2:	73 0b       	sbc	r23, r19
    30e4:	84 0b       	sbc	r24, r20
    30e6:	ba 0b       	sbc	r27, r26
    30e8:	ee 1f       	adc	r30, r30
    30ea:	88 f7       	brcc	.-30     	; 0x30ce <__divsf3_pse+0x94>
    30ec:	e0 95       	com	r30
    30ee:	08 95       	ret

000030f0 <__fixunssfsi>:
    30f0:	0e 94 38 19 	call	0x3270	; 0x3270 <__fp_splitA>
    30f4:	88 f0       	brcs	.+34     	; 0x3118 <__fixunssfsi+0x28>
    30f6:	9f 57       	subi	r25, 0x7F	; 127
    30f8:	98 f0       	brcs	.+38     	; 0x3120 <__fixunssfsi+0x30>
    30fa:	b9 2f       	mov	r27, r25
    30fc:	99 27       	eor	r25, r25
    30fe:	b7 51       	subi	r27, 0x17	; 23
    3100:	b0 f0       	brcs	.+44     	; 0x312e <__fixunssfsi+0x3e>
    3102:	e1 f0       	breq	.+56     	; 0x313c <__fixunssfsi+0x4c>
    3104:	66 0f       	add	r22, r22
    3106:	77 1f       	adc	r23, r23
    3108:	88 1f       	adc	r24, r24
    310a:	99 1f       	adc	r25, r25
    310c:	1a f0       	brmi	.+6      	; 0x3114 <__fixunssfsi+0x24>
    310e:	ba 95       	dec	r27
    3110:	c9 f7       	brne	.-14     	; 0x3104 <__fixunssfsi+0x14>
    3112:	14 c0       	rjmp	.+40     	; 0x313c <__fixunssfsi+0x4c>
    3114:	b1 30       	cpi	r27, 0x01	; 1
    3116:	91 f0       	breq	.+36     	; 0x313c <__fixunssfsi+0x4c>
    3118:	0e 94 52 19 	call	0x32a4	; 0x32a4 <__fp_zero>
    311c:	b1 e0       	ldi	r27, 0x01	; 1
    311e:	08 95       	ret
    3120:	0c 94 52 19 	jmp	0x32a4	; 0x32a4 <__fp_zero>
    3124:	67 2f       	mov	r22, r23
    3126:	78 2f       	mov	r23, r24
    3128:	88 27       	eor	r24, r24
    312a:	b8 5f       	subi	r27, 0xF8	; 248
    312c:	39 f0       	breq	.+14     	; 0x313c <__fixunssfsi+0x4c>
    312e:	b9 3f       	cpi	r27, 0xF9	; 249
    3130:	cc f3       	brlt	.-14     	; 0x3124 <__fixunssfsi+0x34>
    3132:	86 95       	lsr	r24
    3134:	77 95       	ror	r23
    3136:	67 95       	ror	r22
    3138:	b3 95       	inc	r27
    313a:	d9 f7       	brne	.-10     	; 0x3132 <__fixunssfsi+0x42>
    313c:	3e f4       	brtc	.+14     	; 0x314c <__fixunssfsi+0x5c>
    313e:	90 95       	com	r25
    3140:	80 95       	com	r24
    3142:	70 95       	com	r23
    3144:	61 95       	neg	r22
    3146:	7f 4f       	sbci	r23, 0xFF	; 255
    3148:	8f 4f       	sbci	r24, 0xFF	; 255
    314a:	9f 4f       	sbci	r25, 0xFF	; 255
    314c:	08 95       	ret

0000314e <__floatunsisf>:
    314e:	e8 94       	clt
    3150:	09 c0       	rjmp	.+18     	; 0x3164 <__floatsisf+0x12>

00003152 <__floatsisf>:
    3152:	97 fb       	bst	r25, 7
    3154:	3e f4       	brtc	.+14     	; 0x3164 <__floatsisf+0x12>
    3156:	90 95       	com	r25
    3158:	80 95       	com	r24
    315a:	70 95       	com	r23
    315c:	61 95       	neg	r22
    315e:	7f 4f       	sbci	r23, 0xFF	; 255
    3160:	8f 4f       	sbci	r24, 0xFF	; 255
    3162:	9f 4f       	sbci	r25, 0xFF	; 255
    3164:	99 23       	and	r25, r25
    3166:	a9 f0       	breq	.+42     	; 0x3192 <__floatsisf+0x40>
    3168:	f9 2f       	mov	r31, r25
    316a:	96 e9       	ldi	r25, 0x96	; 150
    316c:	bb 27       	eor	r27, r27
    316e:	93 95       	inc	r25
    3170:	f6 95       	lsr	r31
    3172:	87 95       	ror	r24
    3174:	77 95       	ror	r23
    3176:	67 95       	ror	r22
    3178:	b7 95       	ror	r27
    317a:	f1 11       	cpse	r31, r1
    317c:	f8 cf       	rjmp	.-16     	; 0x316e <__floatsisf+0x1c>
    317e:	fa f4       	brpl	.+62     	; 0x31be <__floatsisf+0x6c>
    3180:	bb 0f       	add	r27, r27
    3182:	11 f4       	brne	.+4      	; 0x3188 <__floatsisf+0x36>
    3184:	60 ff       	sbrs	r22, 0
    3186:	1b c0       	rjmp	.+54     	; 0x31be <__floatsisf+0x6c>
    3188:	6f 5f       	subi	r22, 0xFF	; 255
    318a:	7f 4f       	sbci	r23, 0xFF	; 255
    318c:	8f 4f       	sbci	r24, 0xFF	; 255
    318e:	9f 4f       	sbci	r25, 0xFF	; 255
    3190:	16 c0       	rjmp	.+44     	; 0x31be <__floatsisf+0x6c>
    3192:	88 23       	and	r24, r24
    3194:	11 f0       	breq	.+4      	; 0x319a <__floatsisf+0x48>
    3196:	96 e9       	ldi	r25, 0x96	; 150
    3198:	11 c0       	rjmp	.+34     	; 0x31bc <__floatsisf+0x6a>
    319a:	77 23       	and	r23, r23
    319c:	21 f0       	breq	.+8      	; 0x31a6 <__floatsisf+0x54>
    319e:	9e e8       	ldi	r25, 0x8E	; 142
    31a0:	87 2f       	mov	r24, r23
    31a2:	76 2f       	mov	r23, r22
    31a4:	05 c0       	rjmp	.+10     	; 0x31b0 <__floatsisf+0x5e>
    31a6:	66 23       	and	r22, r22
    31a8:	71 f0       	breq	.+28     	; 0x31c6 <__floatsisf+0x74>
    31aa:	96 e8       	ldi	r25, 0x86	; 134
    31ac:	86 2f       	mov	r24, r22
    31ae:	70 e0       	ldi	r23, 0x00	; 0
    31b0:	60 e0       	ldi	r22, 0x00	; 0
    31b2:	2a f0       	brmi	.+10     	; 0x31be <__floatsisf+0x6c>
    31b4:	9a 95       	dec	r25
    31b6:	66 0f       	add	r22, r22
    31b8:	77 1f       	adc	r23, r23
    31ba:	88 1f       	adc	r24, r24
    31bc:	da f7       	brpl	.-10     	; 0x31b4 <__floatsisf+0x62>
    31be:	88 0f       	add	r24, r24
    31c0:	96 95       	lsr	r25
    31c2:	87 95       	ror	r24
    31c4:	97 f9       	bld	r25, 7
    31c6:	08 95       	ret

000031c8 <__fp_cmp>:
    31c8:	99 0f       	add	r25, r25
    31ca:	00 08       	sbc	r0, r0
    31cc:	55 0f       	add	r21, r21
    31ce:	aa 0b       	sbc	r26, r26
    31d0:	e0 e8       	ldi	r30, 0x80	; 128
    31d2:	fe ef       	ldi	r31, 0xFE	; 254
    31d4:	16 16       	cp	r1, r22
    31d6:	17 06       	cpc	r1, r23
    31d8:	e8 07       	cpc	r30, r24
    31da:	f9 07       	cpc	r31, r25
    31dc:	c0 f0       	brcs	.+48     	; 0x320e <__fp_cmp+0x46>
    31de:	12 16       	cp	r1, r18
    31e0:	13 06       	cpc	r1, r19
    31e2:	e4 07       	cpc	r30, r20
    31e4:	f5 07       	cpc	r31, r21
    31e6:	98 f0       	brcs	.+38     	; 0x320e <__fp_cmp+0x46>
    31e8:	62 1b       	sub	r22, r18
    31ea:	73 0b       	sbc	r23, r19
    31ec:	84 0b       	sbc	r24, r20
    31ee:	95 0b       	sbc	r25, r21
    31f0:	39 f4       	brne	.+14     	; 0x3200 <__fp_cmp+0x38>
    31f2:	0a 26       	eor	r0, r26
    31f4:	61 f0       	breq	.+24     	; 0x320e <__fp_cmp+0x46>
    31f6:	23 2b       	or	r18, r19
    31f8:	24 2b       	or	r18, r20
    31fa:	25 2b       	or	r18, r21
    31fc:	21 f4       	brne	.+8      	; 0x3206 <__fp_cmp+0x3e>
    31fe:	08 95       	ret
    3200:	0a 26       	eor	r0, r26
    3202:	09 f4       	brne	.+2      	; 0x3206 <__fp_cmp+0x3e>
    3204:	a1 40       	sbci	r26, 0x01	; 1
    3206:	a6 95       	lsr	r26
    3208:	8f ef       	ldi	r24, 0xFF	; 255
    320a:	81 1d       	adc	r24, r1
    320c:	81 1d       	adc	r24, r1
    320e:	08 95       	ret

00003210 <__fp_inf>:
    3210:	97 f9       	bld	r25, 7
    3212:	9f 67       	ori	r25, 0x7F	; 127
    3214:	80 e8       	ldi	r24, 0x80	; 128
    3216:	70 e0       	ldi	r23, 0x00	; 0
    3218:	60 e0       	ldi	r22, 0x00	; 0
    321a:	08 95       	ret

0000321c <__fp_nan>:
    321c:	9f ef       	ldi	r25, 0xFF	; 255
    321e:	80 ec       	ldi	r24, 0xC0	; 192
    3220:	08 95       	ret

00003222 <__fp_pscA>:
    3222:	00 24       	eor	r0, r0
    3224:	0a 94       	dec	r0
    3226:	16 16       	cp	r1, r22
    3228:	17 06       	cpc	r1, r23
    322a:	18 06       	cpc	r1, r24
    322c:	09 06       	cpc	r0, r25
    322e:	08 95       	ret

00003230 <__fp_pscB>:
    3230:	00 24       	eor	r0, r0
    3232:	0a 94       	dec	r0
    3234:	12 16       	cp	r1, r18
    3236:	13 06       	cpc	r1, r19
    3238:	14 06       	cpc	r1, r20
    323a:	05 06       	cpc	r0, r21
    323c:	08 95       	ret

0000323e <__fp_round>:
    323e:	09 2e       	mov	r0, r25
    3240:	03 94       	inc	r0
    3242:	00 0c       	add	r0, r0
    3244:	11 f4       	brne	.+4      	; 0x324a <__fp_round+0xc>
    3246:	88 23       	and	r24, r24
    3248:	52 f0       	brmi	.+20     	; 0x325e <__fp_round+0x20>
    324a:	bb 0f       	add	r27, r27
    324c:	40 f4       	brcc	.+16     	; 0x325e <__fp_round+0x20>
    324e:	bf 2b       	or	r27, r31
    3250:	11 f4       	brne	.+4      	; 0x3256 <__fp_round+0x18>
    3252:	60 ff       	sbrs	r22, 0
    3254:	04 c0       	rjmp	.+8      	; 0x325e <__fp_round+0x20>
    3256:	6f 5f       	subi	r22, 0xFF	; 255
    3258:	7f 4f       	sbci	r23, 0xFF	; 255
    325a:	8f 4f       	sbci	r24, 0xFF	; 255
    325c:	9f 4f       	sbci	r25, 0xFF	; 255
    325e:	08 95       	ret

00003260 <__fp_split3>:
    3260:	57 fd       	sbrc	r21, 7
    3262:	90 58       	subi	r25, 0x80	; 128
    3264:	44 0f       	add	r20, r20
    3266:	55 1f       	adc	r21, r21
    3268:	59 f0       	breq	.+22     	; 0x3280 <__fp_splitA+0x10>
    326a:	5f 3f       	cpi	r21, 0xFF	; 255
    326c:	71 f0       	breq	.+28     	; 0x328a <__fp_splitA+0x1a>
    326e:	47 95       	ror	r20

00003270 <__fp_splitA>:
    3270:	88 0f       	add	r24, r24
    3272:	97 fb       	bst	r25, 7
    3274:	99 1f       	adc	r25, r25
    3276:	61 f0       	breq	.+24     	; 0x3290 <__fp_splitA+0x20>
    3278:	9f 3f       	cpi	r25, 0xFF	; 255
    327a:	79 f0       	breq	.+30     	; 0x329a <__fp_splitA+0x2a>
    327c:	87 95       	ror	r24
    327e:	08 95       	ret
    3280:	12 16       	cp	r1, r18
    3282:	13 06       	cpc	r1, r19
    3284:	14 06       	cpc	r1, r20
    3286:	55 1f       	adc	r21, r21
    3288:	f2 cf       	rjmp	.-28     	; 0x326e <__fp_split3+0xe>
    328a:	46 95       	lsr	r20
    328c:	f1 df       	rcall	.-30     	; 0x3270 <__fp_splitA>
    328e:	08 c0       	rjmp	.+16     	; 0x32a0 <__fp_splitA+0x30>
    3290:	16 16       	cp	r1, r22
    3292:	17 06       	cpc	r1, r23
    3294:	18 06       	cpc	r1, r24
    3296:	99 1f       	adc	r25, r25
    3298:	f1 cf       	rjmp	.-30     	; 0x327c <__fp_splitA+0xc>
    329a:	86 95       	lsr	r24
    329c:	71 05       	cpc	r23, r1
    329e:	61 05       	cpc	r22, r1
    32a0:	08 94       	sec
    32a2:	08 95       	ret

000032a4 <__fp_zero>:
    32a4:	e8 94       	clt

000032a6 <__fp_szero>:
    32a6:	bb 27       	eor	r27, r27
    32a8:	66 27       	eor	r22, r22
    32aa:	77 27       	eor	r23, r23
    32ac:	cb 01       	movw	r24, r22
    32ae:	97 f9       	bld	r25, 7
    32b0:	08 95       	ret

000032b2 <__gesf2>:
    32b2:	0e 94 e4 18 	call	0x31c8	; 0x31c8 <__fp_cmp>
    32b6:	08 f4       	brcc	.+2      	; 0x32ba <__gesf2+0x8>
    32b8:	8f ef       	ldi	r24, 0xFF	; 255
    32ba:	08 95       	ret

000032bc <__mulsf3>:
    32bc:	0e 94 71 19 	call	0x32e2	; 0x32e2 <__mulsf3x>
    32c0:	0c 94 1f 19 	jmp	0x323e	; 0x323e <__fp_round>
    32c4:	0e 94 11 19 	call	0x3222	; 0x3222 <__fp_pscA>
    32c8:	38 f0       	brcs	.+14     	; 0x32d8 <__mulsf3+0x1c>
    32ca:	0e 94 18 19 	call	0x3230	; 0x3230 <__fp_pscB>
    32ce:	20 f0       	brcs	.+8      	; 0x32d8 <__mulsf3+0x1c>
    32d0:	95 23       	and	r25, r21
    32d2:	11 f0       	breq	.+4      	; 0x32d8 <__mulsf3+0x1c>
    32d4:	0c 94 08 19 	jmp	0x3210	; 0x3210 <__fp_inf>
    32d8:	0c 94 0e 19 	jmp	0x321c	; 0x321c <__fp_nan>
    32dc:	11 24       	eor	r1, r1
    32de:	0c 94 53 19 	jmp	0x32a6	; 0x32a6 <__fp_szero>

000032e2 <__mulsf3x>:
    32e2:	0e 94 30 19 	call	0x3260	; 0x3260 <__fp_split3>
    32e6:	70 f3       	brcs	.-36     	; 0x32c4 <__mulsf3+0x8>

000032e8 <__mulsf3_pse>:
    32e8:	95 9f       	mul	r25, r21
    32ea:	c1 f3       	breq	.-16     	; 0x32dc <__mulsf3+0x20>
    32ec:	95 0f       	add	r25, r21
    32ee:	50 e0       	ldi	r21, 0x00	; 0
    32f0:	55 1f       	adc	r21, r21
    32f2:	62 9f       	mul	r22, r18
    32f4:	f0 01       	movw	r30, r0
    32f6:	72 9f       	mul	r23, r18
    32f8:	bb 27       	eor	r27, r27
    32fa:	f0 0d       	add	r31, r0
    32fc:	b1 1d       	adc	r27, r1
    32fe:	63 9f       	mul	r22, r19
    3300:	aa 27       	eor	r26, r26
    3302:	f0 0d       	add	r31, r0
    3304:	b1 1d       	adc	r27, r1
    3306:	aa 1f       	adc	r26, r26
    3308:	64 9f       	mul	r22, r20
    330a:	66 27       	eor	r22, r22
    330c:	b0 0d       	add	r27, r0
    330e:	a1 1d       	adc	r26, r1
    3310:	66 1f       	adc	r22, r22
    3312:	82 9f       	mul	r24, r18
    3314:	22 27       	eor	r18, r18
    3316:	b0 0d       	add	r27, r0
    3318:	a1 1d       	adc	r26, r1
    331a:	62 1f       	adc	r22, r18
    331c:	73 9f       	mul	r23, r19
    331e:	b0 0d       	add	r27, r0
    3320:	a1 1d       	adc	r26, r1
    3322:	62 1f       	adc	r22, r18
    3324:	83 9f       	mul	r24, r19
    3326:	a0 0d       	add	r26, r0
    3328:	61 1d       	adc	r22, r1
    332a:	22 1f       	adc	r18, r18
    332c:	74 9f       	mul	r23, r20
    332e:	33 27       	eor	r19, r19
    3330:	a0 0d       	add	r26, r0
    3332:	61 1d       	adc	r22, r1
    3334:	23 1f       	adc	r18, r19
    3336:	84 9f       	mul	r24, r20
    3338:	60 0d       	add	r22, r0
    333a:	21 1d       	adc	r18, r1
    333c:	82 2f       	mov	r24, r18
    333e:	76 2f       	mov	r23, r22
    3340:	6a 2f       	mov	r22, r26
    3342:	11 24       	eor	r1, r1
    3344:	9f 57       	subi	r25, 0x7F	; 127
    3346:	50 40       	sbci	r21, 0x00	; 0
    3348:	9a f0       	brmi	.+38     	; 0x3370 <__mulsf3_pse+0x88>
    334a:	f1 f0       	breq	.+60     	; 0x3388 <__mulsf3_pse+0xa0>
    334c:	88 23       	and	r24, r24
    334e:	4a f0       	brmi	.+18     	; 0x3362 <__mulsf3_pse+0x7a>
    3350:	ee 0f       	add	r30, r30
    3352:	ff 1f       	adc	r31, r31
    3354:	bb 1f       	adc	r27, r27
    3356:	66 1f       	adc	r22, r22
    3358:	77 1f       	adc	r23, r23
    335a:	88 1f       	adc	r24, r24
    335c:	91 50       	subi	r25, 0x01	; 1
    335e:	50 40       	sbci	r21, 0x00	; 0
    3360:	a9 f7       	brne	.-22     	; 0x334c <__mulsf3_pse+0x64>
    3362:	9e 3f       	cpi	r25, 0xFE	; 254
    3364:	51 05       	cpc	r21, r1
    3366:	80 f0       	brcs	.+32     	; 0x3388 <__mulsf3_pse+0xa0>
    3368:	0c 94 08 19 	jmp	0x3210	; 0x3210 <__fp_inf>
    336c:	0c 94 53 19 	jmp	0x32a6	; 0x32a6 <__fp_szero>
    3370:	5f 3f       	cpi	r21, 0xFF	; 255
    3372:	e4 f3       	brlt	.-8      	; 0x336c <__mulsf3_pse+0x84>
    3374:	98 3e       	cpi	r25, 0xE8	; 232
    3376:	d4 f3       	brlt	.-12     	; 0x336c <__mulsf3_pse+0x84>
    3378:	86 95       	lsr	r24
    337a:	77 95       	ror	r23
    337c:	67 95       	ror	r22
    337e:	b7 95       	ror	r27
    3380:	f7 95       	ror	r31
    3382:	e7 95       	ror	r30
    3384:	9f 5f       	subi	r25, 0xFF	; 255
    3386:	c1 f7       	brne	.-16     	; 0x3378 <__mulsf3_pse+0x90>
    3388:	fe 2b       	or	r31, r30
    338a:	88 0f       	add	r24, r24
    338c:	91 1d       	adc	r25, r1
    338e:	96 95       	lsr	r25
    3390:	87 95       	ror	r24
    3392:	97 f9       	bld	r25, 7
    3394:	08 95       	ret

00003396 <__tablejump2__>:
    3396:	ee 0f       	add	r30, r30
    3398:	ff 1f       	adc	r31, r31
    339a:	05 90       	lpm	r0, Z+
    339c:	f4 91       	lpm	r31, Z
    339e:	e0 2d       	mov	r30, r0
    33a0:	09 94       	ijmp

000033a2 <__umulhisi3>:
    33a2:	a2 9f       	mul	r26, r18
    33a4:	b0 01       	movw	r22, r0
    33a6:	b3 9f       	mul	r27, r19
    33a8:	c0 01       	movw	r24, r0
    33aa:	a3 9f       	mul	r26, r19
    33ac:	70 0d       	add	r23, r0
    33ae:	81 1d       	adc	r24, r1
    33b0:	11 24       	eor	r1, r1
    33b2:	91 1d       	adc	r25, r1
    33b4:	b2 9f       	mul	r27, r18
    33b6:	70 0d       	add	r23, r0
    33b8:	81 1d       	adc	r24, r1
    33ba:	11 24       	eor	r1, r1
    33bc:	91 1d       	adc	r25, r1
    33be:	08 95       	ret

000033c0 <__muluhisi3>:
    33c0:	0e 94 d1 19 	call	0x33a2	; 0x33a2 <__umulhisi3>
    33c4:	a5 9f       	mul	r26, r21
    33c6:	90 0d       	add	r25, r0
    33c8:	b4 9f       	mul	r27, r20
    33ca:	90 0d       	add	r25, r0
    33cc:	a4 9f       	mul	r26, r20
    33ce:	80 0d       	add	r24, r0
    33d0:	91 1d       	adc	r25, r1
    33d2:	11 24       	eor	r1, r1
    33d4:	08 95       	ret

000033d6 <__do_global_dtors>:
    33d6:	11 e0       	ldi	r17, 0x01	; 1
    33d8:	c4 e3       	ldi	r28, 0x34	; 52
    33da:	d1 e0       	ldi	r29, 0x01	; 1
    33dc:	04 c0       	rjmp	.+8      	; 0x33e6 <__do_global_dtors+0x10>
    33de:	fe 01       	movw	r30, r28
    33e0:	0e 94 cb 19 	call	0x3396	; 0x3396 <__tablejump2__>
    33e4:	21 96       	adiw	r28, 0x01	; 1
    33e6:	c8 33       	cpi	r28, 0x38	; 56
    33e8:	d1 07       	cpc	r29, r17
    33ea:	c9 f7       	brne	.-14     	; 0x33de <__do_global_dtors+0x8>
    33ec:	f8 94       	cli

000033ee <__stop_program>:
    33ee:	ff cf       	rjmp	.-2      	; 0x33ee <__stop_program>
